
CAN_UART_Bootloader.elf:     file format elf32-littlearm

Sections:
Idx Name          Size      VMA       LMA       File off  Algn
  0 .text         00002364  00000000  00000000  00010000  2**2
                  CONTENTS, ALLOC, LOAD, READONLY, CODE
  1 .relocate     000001e8  20000000  00002364  00020000  2**2
                  CONTENTS, ALLOC, LOAD, DATA
  2 .bss          0000038c  200001e8  0000254c  000201e8  2**2
                  ALLOC
  3 .stack        00002004  20000574  000028d8  000201e8  2**0
                  ALLOC
  4 .ARM.attributes 00000028  00000000  00000000  000201e8  2**0
                  CONTENTS, READONLY
  5 .comment      00000059  00000000  00000000  00020210  2**0
                  CONTENTS, READONLY
  6 .debug_info   000285f9  00000000  00000000  00020269  2**0
                  CONTENTS, READONLY, DEBUGGING
  7 .debug_abbrev 00003a92  00000000  00000000  00048862  2**0
                  CONTENTS, READONLY, DEBUGGING
  8 .debug_loc    0000df68  00000000  00000000  0004c2f4  2**0
                  CONTENTS, READONLY, DEBUGGING
  9 .debug_aranges 00000bb0  00000000  00000000  0005a25c  2**0
                  CONTENTS, READONLY, DEBUGGING
 10 .debug_ranges 00000c68  00000000  00000000  0005ae0c  2**0
                  CONTENTS, READONLY, DEBUGGING
 11 .debug_macro  00022c5a  00000000  00000000  0005ba74  2**0
                  CONTENTS, READONLY, DEBUGGING
 12 .debug_line   00014d9f  00000000  00000000  0007e6ce  2**0
                  CONTENTS, READONLY, DEBUGGING
 13 .debug_str    000a3731  00000000  00000000  0009346d  2**0
                  CONTENTS, READONLY, DEBUGGING
 14 .debug_frame  0000266c  00000000  00000000  00136ba0  2**2
                  CONTENTS, READONLY, DEBUGGING

Disassembly of section .text:

00000000 <exception_table>:
       0:	78 25 00 20 35 01 00 00 31 01 00 00 31 01 00 00     x%. 5...1...1...
	...
      2c:	31 01 00 00 00 00 00 00 00 00 00 00 31 01 00 00     1...........1...
      3c:	31 01 00 00 31 01 00 00 31 01 00 00 31 01 00 00     1...1...1...1...
      4c:	31 01 00 00 31 01 00 00 31 01 00 00 3d 09 00 00     1...1...1...=...
      5c:	31 01 00 00 31 01 00 00 31 01 00 00 31 01 00 00     1...1...1...1...
      6c:	31 01 00 00 31 01 00 00 31 01 00 00 31 01 00 00     1...1...1...1...
      7c:	31 01 00 00 75 07 00 00 31 01 00 00 31 01 00 00     1...u...1...1...
      8c:	31 01 00 00 31 01 00 00 31 01 00 00 31 01 00 00     1...1...1...1...
      9c:	31 01 00 00 31 01 00 00 31 01 00 00 31 01 00 00     1...1...1...1...
      ac:	31 01 00 00 31 01 00 00 31 01 00 00 31 01 00 00     1...1...1...1...

000000bc <__do_global_dtors_aux>:
      bc:	b510      	push	{r4, lr}
      be:	4c06      	ldr	r4, [pc, #24]	; (d8 <__do_global_dtors_aux+0x1c>)
      c0:	7823      	ldrb	r3, [r4, #0]
      c2:	2b00      	cmp	r3, #0
      c4:	d107      	bne.n	d6 <__do_global_dtors_aux+0x1a>
      c6:	4b05      	ldr	r3, [pc, #20]	; (dc <__do_global_dtors_aux+0x20>)
      c8:	2b00      	cmp	r3, #0
      ca:	d002      	beq.n	d2 <__do_global_dtors_aux+0x16>
      cc:	4804      	ldr	r0, [pc, #16]	; (e0 <__do_global_dtors_aux+0x24>)
      ce:	e000      	b.n	d2 <__do_global_dtors_aux+0x16>
      d0:	bf00      	nop
      d2:	2301      	movs	r3, #1
      d4:	7023      	strb	r3, [r4, #0]
      d6:	bd10      	pop	{r4, pc}
      d8:	200001e8 	.word	0x200001e8
      dc:	00000000 	.word	0x00000000
      e0:	00002364 	.word	0x00002364

000000e4 <frame_dummy>:
      e4:	4b08      	ldr	r3, [pc, #32]	; (108 <frame_dummy+0x24>)
      e6:	b510      	push	{r4, lr}
      e8:	2b00      	cmp	r3, #0
      ea:	d003      	beq.n	f4 <frame_dummy+0x10>
      ec:	4907      	ldr	r1, [pc, #28]	; (10c <frame_dummy+0x28>)
      ee:	4808      	ldr	r0, [pc, #32]	; (110 <frame_dummy+0x2c>)
      f0:	e000      	b.n	f4 <frame_dummy+0x10>
      f2:	bf00      	nop
      f4:	4807      	ldr	r0, [pc, #28]	; (114 <frame_dummy+0x30>)
      f6:	6803      	ldr	r3, [r0, #0]
      f8:	2b00      	cmp	r3, #0
      fa:	d100      	bne.n	fe <frame_dummy+0x1a>
      fc:	bd10      	pop	{r4, pc}
      fe:	4b06      	ldr	r3, [pc, #24]	; (118 <frame_dummy+0x34>)
     100:	2b00      	cmp	r3, #0
     102:	d0fb      	beq.n	fc <frame_dummy+0x18>
     104:	4798      	blx	r3
     106:	e7f9      	b.n	fc <frame_dummy+0x18>
     108:	00000000 	.word	0x00000000
     10c:	200001ec 	.word	0x200001ec
     110:	00002364 	.word	0x00002364
     114:	00002364 	.word	0x00002364
     118:	00000000 	.word	0x00000000

0000011c <atmel_start_init>:

/**
 * Initializes MCU, drivers and middleware in the project
 **/
void atmel_start_init(void)
{
     11c:	b510      	push	{r4, lr}
	system_init();
     11e:	4b02      	ldr	r3, [pc, #8]	; (128 <atmel_start_init+0xc>)
     120:	4798      	blx	r3
	stdio_redirect_init();
     122:	4b02      	ldr	r3, [pc, #8]	; (12c <atmel_start_init+0x10>)
     124:	4798      	blx	r3
}
     126:	bd10      	pop	{r4, pc}
     128:	000002e1 	.word	0x000002e1
     12c:	00001111 	.word	0x00001111

00000130 <Dummy_Handler>:

/**
 * \brief Default interrupt handler for unused IRQs.
 */
void Dummy_Handler(void)
{
     130:	e7fe      	b.n	130 <Dummy_Handler>
	...

00000134 <Reset_Handler>:
{
     134:	b510      	push	{r4, lr}
        if (pSrc != pDest) {
     136:	4a10      	ldr	r2, [pc, #64]	; (178 <Reset_Handler+0x44>)
     138:	4b10      	ldr	r3, [pc, #64]	; (17c <Reset_Handler+0x48>)
     13a:	429a      	cmp	r2, r3
     13c:	d009      	beq.n	152 <Reset_Handler+0x1e>
     13e:	4b0f      	ldr	r3, [pc, #60]	; (17c <Reset_Handler+0x48>)
     140:	4a0d      	ldr	r2, [pc, #52]	; (178 <Reset_Handler+0x44>)
     142:	e003      	b.n	14c <Reset_Handler+0x18>
                        *pDest++ = *pSrc++;
     144:	6811      	ldr	r1, [r2, #0]
     146:	6019      	str	r1, [r3, #0]
     148:	3304      	adds	r3, #4
     14a:	3204      	adds	r2, #4
                for (; pDest < &_erelocate;) {
     14c:	490c      	ldr	r1, [pc, #48]	; (180 <Reset_Handler+0x4c>)
     14e:	428b      	cmp	r3, r1
     150:	d3f8      	bcc.n	144 <Reset_Handler+0x10>
                        *pDest++ = *pSrc++;
     152:	4b0c      	ldr	r3, [pc, #48]	; (184 <Reset_Handler+0x50>)
     154:	e002      	b.n	15c <Reset_Handler+0x28>
                *pDest++ = 0;
     156:	2200      	movs	r2, #0
     158:	601a      	str	r2, [r3, #0]
     15a:	3304      	adds	r3, #4
        for (pDest = &_szero; pDest < &_ezero;) {
     15c:	4a0a      	ldr	r2, [pc, #40]	; (188 <Reset_Handler+0x54>)
     15e:	4293      	cmp	r3, r2
     160:	d3f9      	bcc.n	156 <Reset_Handler+0x22>
        SCB->VTOR = ((uint32_t) pSrc & SCB_VTOR_TBLOFF_Msk);
     162:	4a0a      	ldr	r2, [pc, #40]	; (18c <Reset_Handler+0x58>)
     164:	21ff      	movs	r1, #255	; 0xff
     166:	4b0a      	ldr	r3, [pc, #40]	; (190 <Reset_Handler+0x5c>)
     168:	438b      	bics	r3, r1
     16a:	6093      	str	r3, [r2, #8]
        __libc_init_array();
     16c:	4b09      	ldr	r3, [pc, #36]	; (194 <Reset_Handler+0x60>)
     16e:	4798      	blx	r3
        main();
     170:	4b09      	ldr	r3, [pc, #36]	; (198 <Reset_Handler+0x64>)
     172:	4798      	blx	r3
     174:	e7fe      	b.n	174 <Reset_Handler+0x40>
     176:	46c0      	nop			; (mov r8, r8)
     178:	00002364 	.word	0x00002364
     17c:	20000000 	.word	0x20000000
     180:	200001e8 	.word	0x200001e8
     184:	200001e8 	.word	0x200001e8
     188:	20000574 	.word	0x20000574
     18c:	e000ed00 	.word	0xe000ed00
     190:	00000000 	.word	0x00000000
     194:	00001131 	.word	0x00001131
     198:	00000c5d 	.word	0x00000c5d

0000019c <FLASH_0_CLOCK_init>:
}

static inline void hri_mclk_set_AHBMASK_NVMCTRL_bit(const void *const hw)
{
	MCLK_CRITICAL_SECTION_ENTER();
	((Mclk *)hw)->AHBMASK.reg |= MCLK_AHBMASK_NVMCTRL;
     19c:	4a02      	ldr	r2, [pc, #8]	; (1a8 <FLASH_0_CLOCK_init+0xc>)
     19e:	6913      	ldr	r3, [r2, #16]
     1a0:	2120      	movs	r1, #32
     1a2:	430b      	orrs	r3, r1
     1a4:	6113      	str	r3, [r2, #16]

void FLASH_0_CLOCK_init(void)
{

	hri_mclk_set_AHBMASK_NVMCTRL_bit(MCLK);
}
     1a6:	4770      	bx	lr
     1a8:	40000800 	.word	0x40000800

000001ac <FLASH_0_init>:

void FLASH_0_init(void)
{
     1ac:	b510      	push	{r4, lr}
	FLASH_0_CLOCK_init();
     1ae:	4b03      	ldr	r3, [pc, #12]	; (1bc <FLASH_0_init+0x10>)
     1b0:	4798      	blx	r3
	flash_init(&FLASH_0, NVMCTRL);
     1b2:	4903      	ldr	r1, [pc, #12]	; (1c0 <FLASH_0_init+0x14>)
     1b4:	4803      	ldr	r0, [pc, #12]	; (1c4 <FLASH_0_init+0x18>)
     1b6:	4b04      	ldr	r3, [pc, #16]	; (1c8 <FLASH_0_init+0x1c>)
     1b8:	4798      	blx	r3
}
     1ba:	bd10      	pop	{r4, pc}
     1bc:	0000019d 	.word	0x0000019d
     1c0:	41004000 	.word	0x41004000
     1c4:	200002f0 	.word	0x200002f0
     1c8:	00000395 	.word	0x00000395

000001cc <TARGET_IO_PORT_init>:

void TARGET_IO_PORT_init(void)
{
     1cc:	b530      	push	{r4, r5, lr}
static inline void hri_port_write_PINCFG_PMUXEN_bit(const void *const hw, uint8_t submodule_index, uint8_t index,
                                                    bool value)
{
	uint8_t tmp;
	PORT_CRITICAL_SECTION_ENTER();
	tmp = ((Port *)hw)->Group[submodule_index].PINCFG[index].reg;
     1ce:	2382      	movs	r3, #130	; 0x82
     1d0:	05db      	lsls	r3, r3, #23
     1d2:	22ca      	movs	r2, #202	; 0xca
     1d4:	5c99      	ldrb	r1, [r3, r2]
	tmp &= ~PORT_PINCFG_PMUXEN;
     1d6:	2501      	movs	r5, #1
     1d8:	43a9      	bics	r1, r5
	tmp |= value << PORT_PINCFG_PMUXEN_Pos;
     1da:	2401      	movs	r4, #1
     1dc:	4321      	orrs	r1, r4
     1de:	b2c9      	uxtb	r1, r1
	((Port *)hw)->Group[submodule_index].PINCFG[index].reg = tmp;
     1e0:	5499      	strb	r1, [r3, r2]
	tmp = ((Port *)hw)->Group[submodule_index].PMUX[index].reg;
     1e2:	20b5      	movs	r0, #181	; 0xb5
     1e4:	5c19      	ldrb	r1, [r3, r0]
	tmp &= ~PORT_PMUX_PMUXE_Msk;
     1e6:	3abb      	subs	r2, #187	; 0xbb
     1e8:	4391      	bics	r1, r2
	tmp |= PORT_PMUX_PMUXE(data);
     1ea:	2203      	movs	r2, #3
     1ec:	4311      	orrs	r1, r2
     1ee:	b2c9      	uxtb	r1, r1
	((Port *)hw)->Group[submodule_index].PMUX[index].reg = tmp;
     1f0:	5419      	strb	r1, [r3, r0]
	tmp = ((Port *)hw)->Group[submodule_index].PINCFG[index].reg;
     1f2:	21cb      	movs	r1, #203	; 0xcb
     1f4:	5c5a      	ldrb	r2, [r3, r1]
	tmp &= ~PORT_PINCFG_PMUXEN;
     1f6:	43aa      	bics	r2, r5
	tmp |= value << PORT_PINCFG_PMUXEN_Pos;
     1f8:	4322      	orrs	r2, r4
     1fa:	b2d2      	uxtb	r2, r2
	((Port *)hw)->Group[submodule_index].PINCFG[index].reg = tmp;
     1fc:	545a      	strb	r2, [r3, r1]
	tmp = ((Port *)hw)->Group[submodule_index].PMUX[index].reg;
     1fe:	5c1a      	ldrb	r2, [r3, r0]
	tmp &= ~PORT_PMUX_PMUXO_Msk;
     200:	39bc      	subs	r1, #188	; 0xbc
     202:	400a      	ands	r2, r1
	tmp |= PORT_PMUX_PMUXO(data);
     204:	2130      	movs	r1, #48	; 0x30
     206:	430a      	orrs	r2, r1
     208:	b2d2      	uxtb	r2, r2
	((Port *)hw)->Group[submodule_index].PMUX[index].reg = tmp;
     20a:	541a      	strb	r2, [r3, r0]

	gpio_set_pin_function(PB10, PINMUX_PB10D_SERCOM4_PAD2);

	gpio_set_pin_function(PB11, PINMUX_PB11D_SERCOM4_PAD3);
}
     20c:	bd30      	pop	{r4, r5, pc}
	...

00000210 <TARGET_IO_CLOCK_init>:
}

static inline void hri_gclk_write_PCHCTRL_reg(const void *const hw, uint8_t index, hri_gclk_pchctrl_reg_t data)
{
	GCLK_CRITICAL_SECTION_ENTER();
	((Gclk *)hw)->PCHCTRL[index].reg = data;
     210:	4b06      	ldr	r3, [pc, #24]	; (22c <TARGET_IO_CLOCK_init+0x1c>)
     212:	2140      	movs	r1, #64	; 0x40
     214:	22dc      	movs	r2, #220	; 0xdc
     216:	5099      	str	r1, [r3, r2]
     218:	3103      	adds	r1, #3
     21a:	3a14      	subs	r2, #20
     21c:	5099      	str	r1, [r3, r2]
}

static inline void hri_mclk_set_APBCMASK_SERCOM4_bit(const void *const hw)
{
	MCLK_CRITICAL_SECTION_ENTER();
	((Mclk *)hw)->APBCMASK.reg |= MCLK_APBCMASK_SERCOM4;
     21e:	4a04      	ldr	r2, [pc, #16]	; (230 <TARGET_IO_CLOCK_init+0x20>)
     220:	69d3      	ldr	r3, [r2, #28]
     222:	3923      	subs	r1, #35	; 0x23
     224:	430b      	orrs	r3, r1
     226:	61d3      	str	r3, [r2, #28]
{
	hri_gclk_write_PCHCTRL_reg(GCLK, SERCOM4_GCLK_ID_CORE, CONF_GCLK_SERCOM4_CORE_SRC | (1 << GCLK_PCHCTRL_CHEN_Pos));
	hri_gclk_write_PCHCTRL_reg(GCLK, SERCOM4_GCLK_ID_SLOW, CONF_GCLK_SERCOM4_SLOW_SRC | (1 << GCLK_PCHCTRL_CHEN_Pos));

	hri_mclk_set_APBCMASK_SERCOM4_bit(MCLK);
}
     228:	4770      	bx	lr
     22a:	46c0      	nop			; (mov r8, r8)
     22c:	40001c00 	.word	0x40001c00
     230:	40000800 	.word	0x40000800

00000234 <TARGET_IO_init>:

void TARGET_IO_init(void)
{
     234:	b510      	push	{r4, lr}
	TARGET_IO_CLOCK_init();
     236:	4b05      	ldr	r3, [pc, #20]	; (24c <TARGET_IO_init+0x18>)
     238:	4798      	blx	r3
	usart_sync_init(&TARGET_IO, SERCOM4, (void *)NULL);
     23a:	2200      	movs	r2, #0
     23c:	4904      	ldr	r1, [pc, #16]	; (250 <TARGET_IO_init+0x1c>)
     23e:	4805      	ldr	r0, [pc, #20]	; (254 <TARGET_IO_init+0x20>)
     240:	4b05      	ldr	r3, [pc, #20]	; (258 <TARGET_IO_init+0x24>)
     242:	4798      	blx	r3
	TARGET_IO_PORT_init();
     244:	4b05      	ldr	r3, [pc, #20]	; (25c <TARGET_IO_init+0x28>)
     246:	4798      	blx	r3
}
     248:	bd10      	pop	{r4, pc}
     24a:	46c0      	nop			; (mov r8, r8)
     24c:	00000211 	.word	0x00000211
     250:	42001400 	.word	0x42001400
     254:	2000030c 	.word	0x2000030c
     258:	00000559 	.word	0x00000559
     25c:	000001cd 	.word	0x000001cd

00000260 <CAN_1_PORT_init>:

void CAN_1_PORT_init(void)
{
     260:	b530      	push	{r4, r5, lr}
	tmp = ((Port *)hw)->Group[submodule_index].PINCFG[index].reg;
     262:	2382      	movs	r3, #130	; 0x82
     264:	05db      	lsls	r3, r3, #23
     266:	22cf      	movs	r2, #207	; 0xcf
     268:	5c99      	ldrb	r1, [r3, r2]
	tmp &= ~PORT_PINCFG_PMUXEN;
     26a:	2501      	movs	r5, #1
     26c:	43a9      	bics	r1, r5
	tmp |= value << PORT_PINCFG_PMUXEN_Pos;
     26e:	2401      	movs	r4, #1
     270:	4321      	orrs	r1, r4
     272:	b2c9      	uxtb	r1, r1
	((Port *)hw)->Group[submodule_index].PINCFG[index].reg = tmp;
     274:	5499      	strb	r1, [r3, r2]
	tmp = ((Port *)hw)->Group[submodule_index].PMUX[index].reg;
     276:	20b7      	movs	r0, #183	; 0xb7
     278:	5c19      	ldrb	r1, [r3, r0]
	tmp &= ~PORT_PMUX_PMUXO_Msk;
     27a:	3ac0      	subs	r2, #192	; 0xc0
     27c:	4011      	ands	r1, r2
	tmp |= PORT_PMUX_PMUXO(data);
     27e:	2260      	movs	r2, #96	; 0x60
     280:	4311      	orrs	r1, r2
     282:	b2c9      	uxtb	r1, r1
	((Port *)hw)->Group[submodule_index].PMUX[index].reg = tmp;
     284:	5419      	strb	r1, [r3, r0]
	tmp = ((Port *)hw)->Group[submodule_index].PINCFG[index].reg;
     286:	21ce      	movs	r1, #206	; 0xce
     288:	5c5a      	ldrb	r2, [r3, r1]
	tmp &= ~PORT_PINCFG_PMUXEN;
     28a:	43aa      	bics	r2, r5
	tmp |= value << PORT_PINCFG_PMUXEN_Pos;
     28c:	4322      	orrs	r2, r4
     28e:	b2d2      	uxtb	r2, r2
	((Port *)hw)->Group[submodule_index].PINCFG[index].reg = tmp;
     290:	545a      	strb	r2, [r3, r1]
	tmp = ((Port *)hw)->Group[submodule_index].PMUX[index].reg;
     292:	5c1a      	ldrb	r2, [r3, r0]
	tmp &= ~PORT_PMUX_PMUXE_Msk;
     294:	39bf      	subs	r1, #191	; 0xbf
     296:	438a      	bics	r2, r1
	tmp |= PORT_PMUX_PMUXE(data);
     298:	2106      	movs	r1, #6
     29a:	430a      	orrs	r2, r1
     29c:	b2d2      	uxtb	r2, r2
	((Port *)hw)->Group[submodule_index].PMUX[index].reg = tmp;
     29e:	541a      	strb	r2, [r3, r0]

	gpio_set_pin_function(PB15, PINMUX_PB15G_CAN1_RX);

	gpio_set_pin_function(PB14, PINMUX_PB14G_CAN1_TX);
}
     2a0:	bd30      	pop	{r4, r5, pc}
	...

000002a4 <CAN_1_init>:
 * \brief CAN initialization function
 *
 * Enables CAN peripheral, clocks and initializes CAN driver
 */
void CAN_1_init(void)
{
     2a4:	b510      	push	{r4, lr}
	((Mclk *)hw)->AHBMASK.reg |= MCLK_AHBMASK_CAN1;
     2a6:	4a08      	ldr	r2, [pc, #32]	; (2c8 <CAN_1_init+0x24>)
     2a8:	6911      	ldr	r1, [r2, #16]
     2aa:	2380      	movs	r3, #128	; 0x80
     2ac:	009b      	lsls	r3, r3, #2
     2ae:	430b      	orrs	r3, r1
     2b0:	6113      	str	r3, [r2, #16]
     2b2:	2140      	movs	r1, #64	; 0x40
     2b4:	23ec      	movs	r3, #236	; 0xec
     2b6:	4a05      	ldr	r2, [pc, #20]	; (2cc <CAN_1_init+0x28>)
     2b8:	50d1      	str	r1, [r2, r3]
	hri_mclk_set_AHBMASK_CAN1_bit(MCLK);
	hri_gclk_write_PCHCTRL_reg(GCLK, CAN1_GCLK_ID, CONF_GCLK_CAN1_SRC | (1 << GCLK_PCHCTRL_CHEN_Pos));
	can_async_init(&CAN_1, CAN1);
     2ba:	4905      	ldr	r1, [pc, #20]	; (2d0 <CAN_1_init+0x2c>)
     2bc:	4805      	ldr	r0, [pc, #20]	; (2d4 <CAN_1_init+0x30>)
     2be:	4b06      	ldr	r3, [pc, #24]	; (2d8 <CAN_1_init+0x34>)
     2c0:	4798      	blx	r3
	CAN_1_PORT_init();
     2c2:	4b06      	ldr	r3, [pc, #24]	; (2dc <CAN_1_init+0x38>)
     2c4:	4798      	blx	r3
}
     2c6:	bd10      	pop	{r4, pc}
     2c8:	40000800 	.word	0x40000800
     2cc:	40001c00 	.word	0x40001c00
     2d0:	42002000 	.word	0x42002000
     2d4:	20000318 	.word	0x20000318
     2d8:	00000329 	.word	0x00000329
     2dc:	00000261 	.word	0x00000261

000002e0 <system_init>:

void system_init(void)
{
     2e0:	b510      	push	{r4, lr}
 * Currently the following initialization functions are supported:
 *  - System clock initialization
 */
static inline void init_mcu(void)
{
	_init_chip();
     2e2:	4b04      	ldr	r3, [pc, #16]	; (2f4 <system_init+0x14>)
     2e4:	4798      	blx	r3
	init_mcu();

	FLASH_0_init();
     2e6:	4b04      	ldr	r3, [pc, #16]	; (2f8 <system_init+0x18>)
     2e8:	4798      	blx	r3

	TARGET_IO_init();
     2ea:	4b04      	ldr	r3, [pc, #16]	; (2fc <system_init+0x1c>)
     2ec:	4798      	blx	r3
	CAN_1_init();
     2ee:	4b04      	ldr	r3, [pc, #16]	; (300 <system_init+0x20>)
     2f0:	4798      	blx	r3
}
     2f2:	bd10      	pop	{r4, pc}
     2f4:	000007e5 	.word	0x000007e5
     2f8:	000001ad 	.word	0x000001ad
     2fc:	00000235 	.word	0x00000235
     300:	000002a5 	.word	0x000002a5

00000304 <can_tx_done>:

/**
 * \internal Callback of CAN Message Write finished
 */
static void can_tx_done(struct _can_async_device *dev)
{
     304:	b510      	push	{r4, lr}
	struct can_async_descriptor *const descr = CONTAINER_OF(dev, struct can_async_descriptor, dev);

	if (descr->cb.tx_done) {
     306:	69c3      	ldr	r3, [r0, #28]
     308:	2b00      	cmp	r3, #0
     30a:	d000      	beq.n	30e <can_tx_done+0xa>
		descr->cb.tx_done(descr);
     30c:	4798      	blx	r3
	}
}
     30e:	bd10      	pop	{r4, pc}

00000310 <can_rx_done>:

/**
 * \internal Callback of CAN Message Read finished
 */
static void can_rx_done(struct _can_async_device *dev)
{
     310:	b510      	push	{r4, lr}
	struct can_async_descriptor *const descr = CONTAINER_OF(dev, struct can_async_descriptor, dev);

	if (descr->cb.rx_done) {
     312:	6a03      	ldr	r3, [r0, #32]
     314:	2b00      	cmp	r3, #0
     316:	d000      	beq.n	31a <can_rx_done+0xa>
		descr->cb.rx_done(descr);
     318:	4798      	blx	r3
	}
}
     31a:	bd10      	pop	{r4, pc}

0000031c <can_irq_handler>:

/**
 * \internal Callback of CAN Interrupt
 */
static void can_irq_handler(struct _can_async_device *dev, enum can_async_interrupt_type type)
{
     31c:	b510      	push	{r4, lr}
	struct can_async_descriptor *const descr = CONTAINER_OF(dev, struct can_async_descriptor, dev);

	if (descr->cb.irq_handler) {
     31e:	6a43      	ldr	r3, [r0, #36]	; 0x24
     320:	2b00      	cmp	r3, #0
     322:	d000      	beq.n	326 <can_irq_handler+0xa>
		descr->cb.irq_handler(descr, type);
     324:	4798      	blx	r3
	}
}
     326:	bd10      	pop	{r4, pc}

00000328 <can_async_init>:
{
     328:	b570      	push	{r4, r5, r6, lr}
     32a:	0004      	movs	r4, r0
     32c:	000d      	movs	r5, r1
	ASSERT(descr && hw);
     32e:	2800      	cmp	r0, #0
     330:	d015      	beq.n	35e <can_async_init+0x36>
     332:	2900      	cmp	r1, #0
     334:	d011      	beq.n	35a <can_async_init+0x32>
     336:	2001      	movs	r0, #1
     338:	2241      	movs	r2, #65	; 0x41
     33a:	490a      	ldr	r1, [pc, #40]	; (364 <can_async_init+0x3c>)
     33c:	4b0a      	ldr	r3, [pc, #40]	; (368 <can_async_init+0x40>)
     33e:	4798      	blx	r3
	rc = _can_async_init(&descr->dev, hw);
     340:	0029      	movs	r1, r5
     342:	0020      	movs	r0, r4
     344:	4b09      	ldr	r3, [pc, #36]	; (36c <can_async_init+0x44>)
     346:	4798      	blx	r3
	if (rc) {
     348:	2800      	cmp	r0, #0
     34a:	d105      	bne.n	358 <can_async_init+0x30>
	descr->dev.cb.tx_done     = can_tx_done;
     34c:	4b08      	ldr	r3, [pc, #32]	; (370 <can_async_init+0x48>)
     34e:	6063      	str	r3, [r4, #4]
	descr->dev.cb.rx_done     = can_rx_done;
     350:	4b08      	ldr	r3, [pc, #32]	; (374 <can_async_init+0x4c>)
     352:	60a3      	str	r3, [r4, #8]
	descr->dev.cb.irq_handler = can_irq_handler;
     354:	4b08      	ldr	r3, [pc, #32]	; (378 <can_async_init+0x50>)
     356:	60e3      	str	r3, [r4, #12]
}
     358:	bd70      	pop	{r4, r5, r6, pc}
	ASSERT(descr && hw);
     35a:	2000      	movs	r0, #0
     35c:	e7ec      	b.n	338 <can_async_init+0x10>
     35e:	2000      	movs	r0, #0
     360:	e7ea      	b.n	338 <can_async_init+0x10>
     362:	46c0      	nop			; (mov r8, r8)
     364:	0000208c 	.word	0x0000208c
     368:	00000629 	.word	0x00000629
     36c:	00000669 	.word	0x00000669
     370:	00000305 	.word	0x00000305
     374:	00000311 	.word	0x00000311
     378:	0000031d 	.word	0x0000031d

0000037c <flash_ready>:
 * \internal Ready for a new flash command
 *
 * \param[in] device The pointer to flash device structure
 */
static void flash_ready(struct _flash_device *device)
{
     37c:	b510      	push	{r4, lr}
	struct flash_descriptor *const descr = CONTAINER_OF(device, struct flash_descriptor, dev);
	if (descr->callbacks.cb_ready) {
     37e:	6943      	ldr	r3, [r0, #20]
     380:	2b00      	cmp	r3, #0
     382:	d000      	beq.n	386 <flash_ready+0xa>
		descr->callbacks.cb_ready(descr);
     384:	4798      	blx	r3
	}
}
     386:	bd10      	pop	{r4, pc}

00000388 <flash_error>:
 * \internal Error occurs in flash command
 *
 * \param[in] device The pointer to flash device structure
 */
static void flash_error(struct _flash_device *device)
{
     388:	b510      	push	{r4, lr}
	struct flash_descriptor *const descr = CONTAINER_OF(device, struct flash_descriptor, dev);
	if (descr->callbacks.cb_error) {
     38a:	6983      	ldr	r3, [r0, #24]
     38c:	2b00      	cmp	r3, #0
     38e:	d000      	beq.n	392 <flash_error+0xa>
		descr->callbacks.cb_error(descr);
     390:	4798      	blx	r3
	}
}
     392:	bd10      	pop	{r4, pc}

00000394 <flash_init>:
{
     394:	b570      	push	{r4, r5, r6, lr}
     396:	0004      	movs	r4, r0
     398:	000d      	movs	r5, r1
	ASSERT(flash && hw);
     39a:	2800      	cmp	r0, #0
     39c:	d013      	beq.n	3c6 <flash_init+0x32>
     39e:	2900      	cmp	r1, #0
     3a0:	d00f      	beq.n	3c2 <flash_init+0x2e>
     3a2:	2001      	movs	r0, #1
     3a4:	2238      	movs	r2, #56	; 0x38
     3a6:	4909      	ldr	r1, [pc, #36]	; (3cc <flash_init+0x38>)
     3a8:	4b09      	ldr	r3, [pc, #36]	; (3d0 <flash_init+0x3c>)
     3aa:	4798      	blx	r3
	rc = _flash_init(&flash->dev, hw);
     3ac:	0029      	movs	r1, r5
     3ae:	0020      	movs	r0, r4
     3b0:	4b08      	ldr	r3, [pc, #32]	; (3d4 <flash_init+0x40>)
     3b2:	4798      	blx	r3
	if (rc) {
     3b4:	2800      	cmp	r0, #0
     3b6:	d103      	bne.n	3c0 <flash_init+0x2c>
	flash->dev.flash_cb.ready_cb = flash_ready;
     3b8:	4b07      	ldr	r3, [pc, #28]	; (3d8 <flash_init+0x44>)
     3ba:	6023      	str	r3, [r4, #0]
	flash->dev.flash_cb.error_cb = flash_error;
     3bc:	4b07      	ldr	r3, [pc, #28]	; (3dc <flash_init+0x48>)
     3be:	6063      	str	r3, [r4, #4]
}
     3c0:	bd70      	pop	{r4, r5, r6, pc}
	ASSERT(flash && hw);
     3c2:	2000      	movs	r0, #0
     3c4:	e7ee      	b.n	3a4 <flash_init+0x10>
     3c6:	2000      	movs	r0, #0
     3c8:	e7ec      	b.n	3a4 <flash_init+0x10>
     3ca:	46c0      	nop			; (mov r8, r8)
     3cc:	000020a8 	.word	0x000020a8
     3d0:	00000629 	.word	0x00000629
     3d4:	000008d9 	.word	0x000008d9
     3d8:	0000037d 	.word	0x0000037d
     3dc:	00000389 	.word	0x00000389

000003e0 <flash_get_page_size>:
{
     3e0:	b510      	push	{r4, lr}
     3e2:	0004      	movs	r4, r0
	ASSERT(flash);
     3e4:	1e43      	subs	r3, r0, #1
     3e6:	4198      	sbcs	r0, r3
     3e8:	b2c0      	uxtb	r0, r0
     3ea:	22f7      	movs	r2, #247	; 0xf7
     3ec:	4903      	ldr	r1, [pc, #12]	; (3fc <flash_get_page_size+0x1c>)
     3ee:	4b04      	ldr	r3, [pc, #16]	; (400 <flash_get_page_size+0x20>)
     3f0:	4798      	blx	r3
	return _flash_get_page_size(&flash->dev);
     3f2:	0020      	movs	r0, r4
     3f4:	4b03      	ldr	r3, [pc, #12]	; (404 <flash_get_page_size+0x24>)
     3f6:	4798      	blx	r3
}
     3f8:	bd10      	pop	{r4, pc}
     3fa:	46c0      	nop			; (mov r8, r8)
     3fc:	000020a8 	.word	0x000020a8
     400:	00000629 	.word	0x00000629
     404:	00000939 	.word	0x00000939

00000408 <io_write>:

/**
 * \brief I/O write interface
 */
int32_t io_write(struct io_descriptor *const io_descr, const uint8_t *const buf, const uint16_t length)
{
     408:	b570      	push	{r4, r5, r6, lr}
     40a:	0004      	movs	r4, r0
     40c:	000d      	movs	r5, r1
     40e:	0016      	movs	r6, r2
	ASSERT(io_descr && buf);
     410:	2800      	cmp	r0, #0
     412:	d00e      	beq.n	432 <io_write+0x2a>
     414:	2900      	cmp	r1, #0
     416:	d00a      	beq.n	42e <io_write+0x26>
     418:	2001      	movs	r0, #1
     41a:	2234      	movs	r2, #52	; 0x34
     41c:	4906      	ldr	r1, [pc, #24]	; (438 <io_write+0x30>)
     41e:	4b07      	ldr	r3, [pc, #28]	; (43c <io_write+0x34>)
     420:	4798      	blx	r3
	return io_descr->write(io_descr, buf, length);
     422:	6823      	ldr	r3, [r4, #0]
     424:	0032      	movs	r2, r6
     426:	0029      	movs	r1, r5
     428:	0020      	movs	r0, r4
     42a:	4798      	blx	r3
}
     42c:	bd70      	pop	{r4, r5, r6, pc}
	ASSERT(io_descr && buf);
     42e:	2000      	movs	r0, #0
     430:	e7f3      	b.n	41a <io_write+0x12>
     432:	2000      	movs	r0, #0
     434:	e7f1      	b.n	41a <io_write+0x12>
     436:	46c0      	nop			; (mov r8, r8)
     438:	000020c0 	.word	0x000020c0
     43c:	00000629 	.word	0x00000629

00000440 <io_read>:

/**
 * \brief I/O read interface
 */
int32_t io_read(struct io_descriptor *const io_descr, uint8_t *const buf, const uint16_t length)
{
     440:	b570      	push	{r4, r5, r6, lr}
     442:	0004      	movs	r4, r0
     444:	000d      	movs	r5, r1
     446:	0016      	movs	r6, r2
	ASSERT(io_descr && buf);
     448:	2800      	cmp	r0, #0
     44a:	d00e      	beq.n	46a <io_read+0x2a>
     44c:	2900      	cmp	r1, #0
     44e:	d00a      	beq.n	466 <io_read+0x26>
     450:	2001      	movs	r0, #1
     452:	223d      	movs	r2, #61	; 0x3d
     454:	4906      	ldr	r1, [pc, #24]	; (470 <io_read+0x30>)
     456:	4b07      	ldr	r3, [pc, #28]	; (474 <io_read+0x34>)
     458:	4798      	blx	r3
	return io_descr->read(io_descr, buf, length);
     45a:	6863      	ldr	r3, [r4, #4]
     45c:	0032      	movs	r2, r6
     45e:	0029      	movs	r1, r5
     460:	0020      	movs	r0, r4
     462:	4798      	blx	r3
}
     464:	bd70      	pop	{r4, r5, r6, pc}
	ASSERT(io_descr && buf);
     466:	2000      	movs	r0, #0
     468:	e7f3      	b.n	452 <io_read+0x12>
     46a:	2000      	movs	r0, #0
     46c:	e7f1      	b.n	452 <io_read+0x12>
     46e:	46c0      	nop			; (mov r8, r8)
     470:	000020c0 	.word	0x000020c0
     474:	00000629 	.word	0x00000629

00000478 <usart_sync_write>:
 * \param[in] length The number of bytes to write
 *
 * \return The number of bytes written.
 */
static int32_t usart_sync_write(struct io_descriptor *const io_descr, const uint8_t *const buf, const uint16_t length)
{
     478:	b5f8      	push	{r3, r4, r5, r6, r7, lr}
     47a:	0005      	movs	r5, r0
     47c:	000e      	movs	r6, r1
     47e:	0017      	movs	r7, r2
	uint32_t                      offset = 0;
	struct usart_sync_descriptor *descr  = CONTAINER_OF(io_descr, struct usart_sync_descriptor, io);

	ASSERT(io_descr && buf && length);
     480:	2800      	cmp	r0, #0
     482:	d023      	beq.n	4cc <usart_sync_write+0x54>
     484:	2900      	cmp	r1, #0
     486:	d023      	beq.n	4d0 <usart_sync_write+0x58>
     488:	2a00      	cmp	r2, #0
     48a:	d123      	bne.n	4d4 <usart_sync_write+0x5c>
     48c:	2000      	movs	r0, #0
     48e:	22f1      	movs	r2, #241	; 0xf1
     490:	4911      	ldr	r1, [pc, #68]	; (4d8 <usart_sync_write+0x60>)
     492:	4b12      	ldr	r3, [pc, #72]	; (4dc <usart_sync_write+0x64>)
     494:	4798      	blx	r3
	while (!_usart_sync_is_ready_to_send(&descr->device))
     496:	002c      	movs	r4, r5
     498:	3408      	adds	r4, #8
     49a:	0020      	movs	r0, r4
     49c:	4b10      	ldr	r3, [pc, #64]	; (4e0 <usart_sync_write+0x68>)
     49e:	4798      	blx	r3
     4a0:	2800      	cmp	r0, #0
     4a2:	d0f8      	beq.n	496 <usart_sync_write+0x1e>
     4a4:	2500      	movs	r5, #0
		;
	do {
		_usart_sync_write_byte(&descr->device, buf[offset]);
     4a6:	5d71      	ldrb	r1, [r6, r5]
     4a8:	0020      	movs	r0, r4
     4aa:	4b0e      	ldr	r3, [pc, #56]	; (4e4 <usart_sync_write+0x6c>)
     4ac:	4798      	blx	r3
		while (!_usart_sync_is_ready_to_send(&descr->device))
     4ae:	0020      	movs	r0, r4
     4b0:	4b0b      	ldr	r3, [pc, #44]	; (4e0 <usart_sync_write+0x68>)
     4b2:	4798      	blx	r3
     4b4:	2800      	cmp	r0, #0
     4b6:	d0fa      	beq.n	4ae <usart_sync_write+0x36>
			;
	} while (++offset < length);
     4b8:	3501      	adds	r5, #1
     4ba:	42bd      	cmp	r5, r7
     4bc:	d3f3      	bcc.n	4a6 <usart_sync_write+0x2e>
	while (!_usart_sync_is_transmit_done(&descr->device))
     4be:	0020      	movs	r0, r4
     4c0:	4b09      	ldr	r3, [pc, #36]	; (4e8 <usart_sync_write+0x70>)
     4c2:	4798      	blx	r3
     4c4:	2800      	cmp	r0, #0
     4c6:	d0fa      	beq.n	4be <usart_sync_write+0x46>
		;
	return (int32_t)offset;
}
     4c8:	0028      	movs	r0, r5
     4ca:	bdf8      	pop	{r3, r4, r5, r6, r7, pc}
	ASSERT(io_descr && buf && length);
     4cc:	2000      	movs	r0, #0
     4ce:	e7de      	b.n	48e <usart_sync_write+0x16>
     4d0:	2000      	movs	r0, #0
     4d2:	e7dc      	b.n	48e <usart_sync_write+0x16>
     4d4:	2001      	movs	r0, #1
     4d6:	e7da      	b.n	48e <usart_sync_write+0x16>
     4d8:	000020d4 	.word	0x000020d4
     4dc:	00000629 	.word	0x00000629
     4e0:	00000bcf 	.word	0x00000bcf
     4e4:	00000bbf 	.word	0x00000bbf
     4e8:	00000bd9 	.word	0x00000bd9

000004ec <usart_sync_read>:
 * \param[in] length The size of a buffer
 *
 * \return The number of bytes read.
 */
static int32_t usart_sync_read(struct io_descriptor *const io_descr, uint8_t *const buf, const uint16_t length)
{
     4ec:	b5f8      	push	{r3, r4, r5, r6, r7, lr}
     4ee:	46ce      	mov	lr, r9
     4f0:	4647      	mov	r7, r8
     4f2:	b580      	push	{r7, lr}
     4f4:	1e05      	subs	r5, r0, #0
     4f6:	4688      	mov	r8, r1
     4f8:	4691      	mov	r9, r2
	uint32_t                      offset = 0;
	struct usart_sync_descriptor *descr  = CONTAINER_OF(io_descr, struct usart_sync_descriptor, io);

	ASSERT(io_descr && buf && length);
     4fa:	d01f      	beq.n	53c <usart_sync_read+0x50>
     4fc:	2900      	cmp	r1, #0
     4fe:	d01f      	beq.n	540 <usart_sync_read+0x54>
     500:	2a00      	cmp	r2, #0
     502:	d11f      	bne.n	544 <usart_sync_read+0x58>
     504:	2000      	movs	r0, #0
     506:	2286      	movs	r2, #134	; 0x86
     508:	0052      	lsls	r2, r2, #1
     50a:	490f      	ldr	r1, [pc, #60]	; (548 <usart_sync_read+0x5c>)
     50c:	4b0f      	ldr	r3, [pc, #60]	; (54c <usart_sync_read+0x60>)
     50e:	4798      	blx	r3
	uint32_t                      offset = 0;
     510:	2600      	movs	r6, #0
	do {
		while (!_usart_sync_is_byte_received(&descr->device))
     512:	002c      	movs	r4, r5
     514:	3408      	adds	r4, #8
     516:	0020      	movs	r0, r4
     518:	4b0d      	ldr	r3, [pc, #52]	; (550 <usart_sync_read+0x64>)
     51a:	4798      	blx	r3
     51c:	2800      	cmp	r0, #0
     51e:	d0f8      	beq.n	512 <usart_sync_read+0x26>
			;
		buf[offset] = _usart_sync_read_byte(&descr->device);
     520:	4643      	mov	r3, r8
     522:	199f      	adds	r7, r3, r6
     524:	0020      	movs	r0, r4
     526:	4b0b      	ldr	r3, [pc, #44]	; (554 <usart_sync_read+0x68>)
     528:	4798      	blx	r3
     52a:	7038      	strb	r0, [r7, #0]
	} while (++offset < length);
     52c:	3601      	adds	r6, #1
     52e:	454e      	cmp	r6, r9
     530:	d3ef      	bcc.n	512 <usart_sync_read+0x26>

	return (int32_t)offset;
}
     532:	0030      	movs	r0, r6
     534:	bc0c      	pop	{r2, r3}
     536:	4690      	mov	r8, r2
     538:	4699      	mov	r9, r3
     53a:	bdf8      	pop	{r3, r4, r5, r6, r7, pc}
	ASSERT(io_descr && buf && length);
     53c:	2000      	movs	r0, #0
     53e:	e7e2      	b.n	506 <usart_sync_read+0x1a>
     540:	2000      	movs	r0, #0
     542:	e7e0      	b.n	506 <usart_sync_read+0x1a>
     544:	2001      	movs	r0, #1
     546:	e7de      	b.n	506 <usart_sync_read+0x1a>
     548:	000020d4 	.word	0x000020d4
     54c:	00000629 	.word	0x00000629
     550:	00000be5 	.word	0x00000be5
     554:	00000bc7 	.word	0x00000bc7

00000558 <usart_sync_init>:
{
     558:	b570      	push	{r4, r5, r6, lr}
     55a:	0004      	movs	r4, r0
     55c:	000d      	movs	r5, r1
	ASSERT(descr && hw);
     55e:	2800      	cmp	r0, #0
     560:	d014      	beq.n	58c <usart_sync_init+0x34>
     562:	2900      	cmp	r1, #0
     564:	d010      	beq.n	588 <usart_sync_init+0x30>
     566:	2001      	movs	r0, #1
     568:	2234      	movs	r2, #52	; 0x34
     56a:	4909      	ldr	r1, [pc, #36]	; (590 <usart_sync_init+0x38>)
     56c:	4b09      	ldr	r3, [pc, #36]	; (594 <usart_sync_init+0x3c>)
     56e:	4798      	blx	r3
	init_status = _usart_sync_init(&descr->device, hw);
     570:	0020      	movs	r0, r4
     572:	3008      	adds	r0, #8
     574:	0029      	movs	r1, r5
     576:	4b08      	ldr	r3, [pc, #32]	; (598 <usart_sync_init+0x40>)
     578:	4798      	blx	r3
	if (init_status) {
     57a:	2800      	cmp	r0, #0
     57c:	d103      	bne.n	586 <usart_sync_init+0x2e>
	descr->io.read  = usart_sync_read;
     57e:	4b07      	ldr	r3, [pc, #28]	; (59c <usart_sync_init+0x44>)
     580:	6063      	str	r3, [r4, #4]
	descr->io.write = usart_sync_write;
     582:	4b07      	ldr	r3, [pc, #28]	; (5a0 <usart_sync_init+0x48>)
     584:	6023      	str	r3, [r4, #0]
}
     586:	bd70      	pop	{r4, r5, r6, pc}
	ASSERT(descr && hw);
     588:	2000      	movs	r0, #0
     58a:	e7ed      	b.n	568 <usart_sync_init+0x10>
     58c:	2000      	movs	r0, #0
     58e:	e7eb      	b.n	568 <usart_sync_init+0x10>
     590:	000020d4 	.word	0x000020d4
     594:	00000629 	.word	0x00000629
     598:	00000b81 	.word	0x00000b81
     59c:	000004ed 	.word	0x000004ed
     5a0:	00000479 	.word	0x00000479

000005a4 <usart_sync_enable>:
{
     5a4:	b510      	push	{r4, lr}
     5a6:	0004      	movs	r4, r0
	ASSERT(descr);
     5a8:	1e43      	subs	r3, r0, #1
     5aa:	4198      	sbcs	r0, r3
     5ac:	b2c0      	uxtb	r0, r0
     5ae:	2253      	movs	r2, #83	; 0x53
     5b0:	4904      	ldr	r1, [pc, #16]	; (5c4 <usart_sync_enable+0x20>)
     5b2:	4b05      	ldr	r3, [pc, #20]	; (5c8 <usart_sync_enable+0x24>)
     5b4:	4798      	blx	r3
	_usart_sync_enable(&descr->device);
     5b6:	0020      	movs	r0, r4
     5b8:	3008      	adds	r0, #8
     5ba:	4b04      	ldr	r3, [pc, #16]	; (5cc <usart_sync_enable+0x28>)
     5bc:	4798      	blx	r3
}
     5be:	2000      	movs	r0, #0
     5c0:	bd10      	pop	{r4, pc}
     5c2:	46c0      	nop			; (mov r8, r8)
     5c4:	000020d4 	.word	0x000020d4
     5c8:	00000629 	.word	0x00000629
     5cc:	00000bad 	.word	0x00000bad

000005d0 <usart_sync_get_io_descriptor>:
{
     5d0:	b570      	push	{r4, r5, r6, lr}
     5d2:	0004      	movs	r4, r0
     5d4:	000d      	movs	r5, r1
	ASSERT(descr && io);
     5d6:	2800      	cmp	r0, #0
     5d8:	d00b      	beq.n	5f2 <usart_sync_get_io_descriptor+0x22>
     5da:	2900      	cmp	r1, #0
     5dc:	d007      	beq.n	5ee <usart_sync_get_io_descriptor+0x1e>
     5de:	2001      	movs	r0, #1
     5e0:	2269      	movs	r2, #105	; 0x69
     5e2:	4905      	ldr	r1, [pc, #20]	; (5f8 <usart_sync_get_io_descriptor+0x28>)
     5e4:	4b05      	ldr	r3, [pc, #20]	; (5fc <usart_sync_get_io_descriptor+0x2c>)
     5e6:	4798      	blx	r3
	*io = &descr->io;
     5e8:	602c      	str	r4, [r5, #0]
}
     5ea:	2000      	movs	r0, #0
     5ec:	bd70      	pop	{r4, r5, r6, pc}
	ASSERT(descr && io);
     5ee:	2000      	movs	r0, #0
     5f0:	e7f6      	b.n	5e0 <usart_sync_get_io_descriptor+0x10>
     5f2:	2000      	movs	r0, #0
     5f4:	e7f4      	b.n	5e0 <usart_sync_get_io_descriptor+0x10>
     5f6:	46c0      	nop			; (mov r8, r8)
     5f8:	000020d4 	.word	0x000020d4
     5fc:	00000629 	.word	0x00000629

00000600 <usart_sync_is_rx_not_empty>:
{
     600:	b510      	push	{r4, lr}
     602:	0004      	movs	r4, r0
	ASSERT(descr);
     604:	1e43      	subs	r3, r0, #1
     606:	4198      	sbcs	r0, r3
     608:	b2c0      	uxtb	r0, r0
     60a:	22d7      	movs	r2, #215	; 0xd7
     60c:	4903      	ldr	r1, [pc, #12]	; (61c <usart_sync_is_rx_not_empty+0x1c>)
     60e:	4b04      	ldr	r3, [pc, #16]	; (620 <usart_sync_is_rx_not_empty+0x20>)
     610:	4798      	blx	r3
	return _usart_sync_is_byte_received(&descr->device);
     612:	0020      	movs	r0, r4
     614:	3008      	adds	r0, #8
     616:	4b03      	ldr	r3, [pc, #12]	; (624 <usart_sync_is_rx_not_empty+0x24>)
     618:	4798      	blx	r3
}
     61a:	bd10      	pop	{r4, pc}
     61c:	000020d4 	.word	0x000020d4
     620:	00000629 	.word	0x00000629
     624:	00000be5 	.word	0x00000be5

00000628 <assert>:
/**
 * \brief Assert function
 */
void assert(const bool condition, const char *const file, const int line)
{
	if (!(condition)) {
     628:	2800      	cmp	r0, #0
     62a:	d100      	bne.n	62e <assert+0x6>
		__asm("BKPT #0");
     62c:	be00      	bkpt	0x0000
	}
	(void)file;
	(void)line;
}
     62e:	4770      	bx	lr

00000630 <_sbrk>:

/**
 * \brief Replacement of C library of _sbrk
 */
extern caddr_t _sbrk(int incr)
{
     630:	0003      	movs	r3, r0
	static unsigned char *heap = NULL;
	unsigned char *       prev_heap;

	if (heap == NULL) {
     632:	4a06      	ldr	r2, [pc, #24]	; (64c <_sbrk+0x1c>)
     634:	6812      	ldr	r2, [r2, #0]
     636:	2a00      	cmp	r2, #0
     638:	d004      	beq.n	644 <_sbrk+0x14>
		heap = (unsigned char *)&_end;
	}
	prev_heap = heap;
     63a:	4a04      	ldr	r2, [pc, #16]	; (64c <_sbrk+0x1c>)
     63c:	6810      	ldr	r0, [r2, #0]

	heap += incr;
     63e:	18c3      	adds	r3, r0, r3
     640:	6013      	str	r3, [r2, #0]

	return (caddr_t)prev_heap;
}
     642:	4770      	bx	lr
		heap = (unsigned char *)&_end;
     644:	4902      	ldr	r1, [pc, #8]	; (650 <_sbrk+0x20>)
     646:	4a01      	ldr	r2, [pc, #4]	; (64c <_sbrk+0x1c>)
     648:	6011      	str	r1, [r2, #0]
     64a:	e7f6      	b.n	63a <_sbrk+0xa>
     64c:	20000204 	.word	0x20000204
     650:	20002578 	.word	0x20002578

00000654 <_close>:
 */
extern int _close(int file)
{
	(void)file;
	return -1;
}
     654:	2001      	movs	r0, #1
     656:	4240      	negs	r0, r0
     658:	4770      	bx	lr

0000065a <_fstat>:
 * \brief Replacement of C library of _fstat
 */
extern int _fstat(int file, struct stat *st)
{
	(void)file;
	st->st_mode = S_IFCHR;
     65a:	2380      	movs	r3, #128	; 0x80
     65c:	019b      	lsls	r3, r3, #6
     65e:	604b      	str	r3, [r1, #4]

	return 0;
}
     660:	2000      	movs	r0, #0
     662:	4770      	bx	lr

00000664 <_lseek>:
 */
extern int _lseek(int file, int ptr, int dir)
{
	(void)file, (void)ptr, (void)dir;
	return 0;
}
     664:	2000      	movs	r0, #0
     666:	4770      	bx	lr

00000668 <_can_async_init>:

/**
 * \brief Initialize CAN.
 */
int32_t _can_async_init(struct _can_async_device *const dev, void *const hw)
{
     668:	b5f0      	push	{r4, r5, r6, r7, lr}
	dev->hw = hw;
     66a:	6001      	str	r1, [r0, #0]
}

static inline void hri_can_set_CCCR_INIT_bit(const void *const hw)
{
	CAN_CRITICAL_SECTION_ENTER();
	((Can *)hw)->CCCR.reg |= CAN_CCCR_INIT;
     66c:	698b      	ldr	r3, [r1, #24]
     66e:	2201      	movs	r2, #1
     670:	4313      	orrs	r3, r2
     672:	618b      	str	r3, [r1, #24]
	hri_can_set_CCCR_INIT_bit(dev->hw);
	while (hri_can_get_CCCR_INIT_bit(dev->hw) == 0)
     674:	6803      	ldr	r3, [r0, #0]
}

static inline bool hri_can_get_CCCR_INIT_bit(const void *const hw)
{
	uint32_t tmp;
	tmp = ((Can *)hw)->CCCR.reg;
     676:	699a      	ldr	r2, [r3, #24]
     678:	07d2      	lsls	r2, r2, #31
     67a:	d5fb      	bpl.n	674 <_can_async_init+0xc>
}

static inline void hri_can_set_CCCR_CCE_bit(const void *const hw)
{
	CAN_CRITICAL_SECTION_ENTER();
	((Can *)hw)->CCCR.reg |= CAN_CCCR_CCE;
     67c:	699a      	ldr	r2, [r3, #24]
     67e:	2402      	movs	r4, #2
     680:	4322      	orrs	r2, r4
     682:	619a      	str	r2, [r3, #24]
		hri_can_write_ILE_reg(dev->hw, CAN_ILE_EINT0);
	}
#endif

#ifdef CONF_CAN1_ENABLED
	if (hw == CAN1) {
     684:	4b33      	ldr	r3, [pc, #204]	; (754 <_can_async_init+0xec>)
     686:	4299      	cmp	r1, r3
     688:	d00f      	beq.n	6aa <_can_async_init+0x42>
		hri_can_write_ILE_reg(dev->hw, CAN_ILE_EINT0);
	}
#endif

	/* Disable CCE to prevent Configuration Change */
	hri_can_clear_CCCR_CCE_bit(dev->hw);
     68a:	6802      	ldr	r2, [r0, #0]
}

static inline void hri_can_clear_CCCR_CCE_bit(const void *const hw)
{
	CAN_CRITICAL_SECTION_ENTER();
	((Can *)hw)->CCCR.reg &= ~CAN_CCCR_CCE;
     68c:	6993      	ldr	r3, [r2, #24]
     68e:	2102      	movs	r1, #2
     690:	438b      	bics	r3, r1
     692:	6193      	str	r3, [r2, #24]
	hri_can_clear_CCCR_INIT_bit(dev->hw);
     694:	6802      	ldr	r2, [r0, #0]
	((Can *)hw)->CCCR.reg &= ~CAN_CCCR_INIT;
     696:	6993      	ldr	r3, [r2, #24]
     698:	3901      	subs	r1, #1
     69a:	438b      	bics	r3, r1
     69c:	6193      	str	r3, [r2, #24]
	while (hri_can_get_CCCR_INIT_bit(dev->hw)) {
     69e:	6803      	ldr	r3, [r0, #0]
	tmp = ((Can *)hw)->CCCR.reg;
     6a0:	699b      	ldr	r3, [r3, #24]
     6a2:	07db      	lsls	r3, r3, #31
     6a4:	d4fb      	bmi.n	69e <_can_async_init+0x36>
	};

	return ERR_NONE;
}
     6a6:	2000      	movs	r0, #0
     6a8:	bdf0      	pop	{r4, r5, r6, r7, pc}
		_can1_dev    = dev;
     6aa:	4b2b      	ldr	r3, [pc, #172]	; (758 <_can_async_init+0xf0>)
     6ac:	001a      	movs	r2, r3
     6ae:	c201      	stmia	r2!, {r0}
		dev->context = (void *)&_can1_context;
     6b0:	492a      	ldr	r1, [pc, #168]	; (75c <_can_async_init+0xf4>)
     6b2:	6181      	str	r1, [r0, #24]
		hri_can_set_CCCR_reg(dev->hw, CONF_CAN1_CCCR_REG);
     6b4:	6801      	ldr	r1, [r0, #0]
}

static inline void hri_can_set_CCCR_reg(const void *const hw, hri_can_cccr_reg_t mask)
{
	CAN_CRITICAL_SECTION_ENTER();
	((Can *)hw)->CCCR.reg |= mask;
     6b6:	698c      	ldr	r4, [r1, #24]
     6b8:	618c      	str	r4, [r1, #24]
		hri_can_write_MRCFG_reg(dev->hw, CONF_CAN1_MRCFG_REG);
     6ba:	6801      	ldr	r1, [r0, #0]
	((Can *)hw)->MRCFG.reg = data;
     6bc:	2400      	movs	r4, #0
     6be:	608c      	str	r4, [r1, #8]
		hri_can_write_NBTP_reg(dev->hw, CONF_CAN1_BTP_REG);
     6c0:	6801      	ldr	r1, [r0, #0]
}

static inline void hri_can_write_NBTP_reg(const void *const hw, hri_can_nbtp_reg_t data)
{
	CAN_CRITICAL_SECTION_ENTER();
	((Can *)hw)->NBTP.reg = data;
     6c2:	4d27      	ldr	r5, [pc, #156]	; (760 <_can_async_init+0xf8>)
     6c4:	61cd      	str	r5, [r1, #28]
		hri_can_write_DBTP_reg(dev->hw, CONF_CAN1_DBTP_REG);
     6c6:	6801      	ldr	r1, [r0, #0]
	((Can *)hw)->DBTP.reg = data;
     6c8:	4d26      	ldr	r5, [pc, #152]	; (764 <_can_async_init+0xfc>)
     6ca:	60cd      	str	r5, [r1, #12]
		hri_can_write_RXF0C_reg(dev->hw, CONF_CAN1_RXF0C_REG | CAN_RXF0C_F0SA((uint32_t)can1_rx_fifo));
     6cc:	4d26      	ldr	r5, [pc, #152]	; (768 <_can_async_init+0x100>)
     6ce:	042d      	lsls	r5, r5, #16
     6d0:	0c2d      	lsrs	r5, r5, #16
     6d2:	2180      	movs	r1, #128	; 0x80
     6d4:	0289      	lsls	r1, r1, #10
     6d6:	430d      	orrs	r5, r1
}

static inline void hri_can_write_RXF0C_reg(const void *const hw, hri_can_rxf0c_reg_t data)
{
	CAN_CRITICAL_SECTION_ENTER();
	((Can *)hw)->RXF0C.reg = data;
     6d8:	26a0      	movs	r6, #160	; 0xa0
     6da:	6807      	ldr	r7, [r0, #0]
     6dc:	51bd      	str	r5, [r7, r6]
}

static inline void hri_can_write_RXESC_reg(const void *const hw, hri_can_rxesc_reg_t data)
{
	CAN_CRITICAL_SECTION_ENTER();
	((Can *)hw)->RXESC.reg = data;
     6de:	25bc      	movs	r5, #188	; 0xbc
     6e0:	6806      	ldr	r6, [r0, #0]
     6e2:	5174      	str	r4, [r6, r5]
}

static inline void hri_can_write_TXESC_reg(const void *const hw, hri_can_txesc_reg_t data)
{
	CAN_CRITICAL_SECTION_ENTER();
	((Can *)hw)->TXESC.reg = data;
     6e4:	350c      	adds	r5, #12
     6e6:	6806      	ldr	r6, [r0, #0]
     6e8:	5174      	str	r4, [r6, r5]
		hri_can_write_TXBC_reg(dev->hw, CONF_CAN1_TXBC_REG | CAN_TXBC_TBSA((uint32_t)can1_tx_fifo));
     6ea:	4d20      	ldr	r5, [pc, #128]	; (76c <_can_async_init+0x104>)
     6ec:	042d      	lsls	r5, r5, #16
     6ee:	0c2d      	lsrs	r5, r5, #16
     6f0:	2680      	movs	r6, #128	; 0x80
     6f2:	04b6      	lsls	r6, r6, #18
     6f4:	4335      	orrs	r5, r6
	((Can *)hw)->TXBC.reg = data;
     6f6:	26c0      	movs	r6, #192	; 0xc0
     6f8:	6807      	ldr	r7, [r0, #0]
     6fa:	51bd      	str	r5, [r7, r6]
		hri_can_write_TXEFC_reg(dev->hw, CONF_CAN1_TXEFC_REG | CAN_TXEFC_EFSA((uint32_t)can1_tx_event_fifo));
     6fc:	0412      	lsls	r2, r2, #16
     6fe:	0c12      	lsrs	r2, r2, #16
     700:	430a      	orrs	r2, r1
}

static inline void hri_can_write_TXEFC_reg(const void *const hw, hri_can_txefc_reg_t data)
{
	CAN_CRITICAL_SECTION_ENTER();
	((Can *)hw)->TXEFC.reg = data;
     702:	25f0      	movs	r5, #240	; 0xf0
     704:	6806      	ldr	r6, [r0, #0]
     706:	5172      	str	r2, [r6, r5]
	((Can *)hw)->GFC.reg = data;
     708:	3d70      	subs	r5, #112	; 0x70
     70a:	2228      	movs	r2, #40	; 0x28
     70c:	6806      	ldr	r6, [r0, #0]
     70e:	5172      	str	r2, [r6, r5]
		hri_can_write_SIDFC_reg(dev->hw, CONF_CAN1_SIDFC_REG | CAN_SIDFC_FLSSA((uint32_t)can1_rx_std_filter));
     710:	001a      	movs	r2, r3
     712:	3214      	adds	r2, #20
     714:	0412      	lsls	r2, r2, #16
     716:	0c12      	lsrs	r2, r2, #16
     718:	430a      	orrs	r2, r1
	((Can *)hw)->SIDFC.reg = data;
     71a:	2684      	movs	r6, #132	; 0x84
     71c:	6807      	ldr	r7, [r0, #0]
     71e:	51ba      	str	r2, [r7, r6]
		hri_can_write_XIDFC_reg(dev->hw, CONF_CAN1_XIDFC_REG | CAN_XIDFC_FLESA((uint32_t)can1_rx_ext_filter));
     720:	331c      	adds	r3, #28
     722:	041b      	lsls	r3, r3, #16
     724:	0c1b      	lsrs	r3, r3, #16
     726:	430b      	orrs	r3, r1
	((Can *)hw)->XIDFC.reg = data;
     728:	2288      	movs	r2, #136	; 0x88
     72a:	6801      	ldr	r1, [r0, #0]
     72c:	508b      	str	r3, [r1, r2]
	((Can *)hw)->XIDAM.reg = data;
     72e:	2390      	movs	r3, #144	; 0x90
     730:	6802      	ldr	r2, [r0, #0]
     732:	50d4      	str	r4, [r2, r3]
 */
__STATIC_INLINE void __NVIC_DisableIRQ(IRQn_Type IRQn)
{
  if ((int32_t)(IRQn) >= 0)
  {
    NVIC->ICER[0U] = (uint32_t)(1UL << (((uint32_t)IRQn) & 0x1FUL));
     734:	4b0e      	ldr	r3, [pc, #56]	; (770 <_can_async_init+0x108>)
     736:	2280      	movs	r2, #128	; 0x80
     738:	0252      	lsls	r2, r2, #9
     73a:	515a      	str	r2, [r3, r5]
  \details Acts as a special kind of Data Memory Barrier.
           It completes when all explicit memory accesses before this instruction complete.
 */
__STATIC_FORCEINLINE void __DSB(void)
{
  __ASM volatile ("dsb 0xF":::"memory");
     73c:	f3bf 8f4f 	dsb	sy
  __ASM volatile ("isb 0xF":::"memory");
     740:	f3bf 8f6f 	isb	sy
 */
__STATIC_INLINE void __NVIC_ClearPendingIRQ(IRQn_Type IRQn)
{
  if ((int32_t)(IRQn) >= 0)
  {
    NVIC->ICPR[0U] = (uint32_t)(1UL << (((uint32_t)IRQn) & 0x1FUL));
     744:	21c0      	movs	r1, #192	; 0xc0
     746:	0049      	lsls	r1, r1, #1
     748:	505a      	str	r2, [r3, r1]
    NVIC->ISER[0U] = (uint32_t)(1UL << (((uint32_t)IRQn) & 0x1FUL));
     74a:	601a      	str	r2, [r3, #0]
		hri_can_write_ILE_reg(dev->hw, CAN_ILE_EINT0);
     74c:	6803      	ldr	r3, [r0, #0]
	((Can *)hw)->ILE.reg = data;
     74e:	2201      	movs	r2, #1
     750:	65da      	str	r2, [r3, #92]	; 0x5c
     752:	e79a      	b.n	68a <_can_async_init+0x22>
     754:	42002000 	.word	0x42002000
     758:	20000208 	.word	0x20000208
     75c:	20000000 	.word	0x20000000
     760:	06020a07 	.word	0x06020a07
     764:	00000a33 	.word	0x00000a33
     768:	20000360 	.word	0x20000360
     76c:	20000340 	.word	0x20000340
     770:	e000e100 	.word	0xe000e100

00000774 <CAN1_Handler>:

/*
 * \brief CAN interrupt handler
 */
void CAN1_Handler(void)
{
     774:	b570      	push	{r4, r5, r6, lr}
	struct _can_async_device *dev = _can1_dev;
     776:	4b1a      	ldr	r3, [pc, #104]	; (7e0 <CAN1_Handler+0x6c>)
     778:	681d      	ldr	r5, [r3, #0]
	uint32_t                  ir;
	ir = hri_can_read_IR_reg(dev->hw);
     77a:	682b      	ldr	r3, [r5, #0]
	return ((Can *)hw)->IR.reg;
     77c:	6d1c      	ldr	r4, [r3, #80]	; 0x50

	if (ir & CAN_IR_RF0N) {
     77e:	07e3      	lsls	r3, r4, #31
     780:	d414      	bmi.n	7ac <CAN1_Handler+0x38>
		dev->cb.rx_done(dev);
	}

	if (ir & CAN_IR_TC) {
     782:	05a3      	lsls	r3, r4, #22
     784:	d416      	bmi.n	7b4 <CAN1_Handler+0x40>
		dev->cb.tx_done(dev);
	}

	if (ir & CAN_IR_BO) {
     786:	01a3      	lsls	r3, r4, #6
     788:	d418      	bmi.n	7bc <CAN1_Handler+0x48>
		dev->cb.irq_handler(dev, CAN_IRQ_BO);
	}

	if (ir & CAN_IR_EW) {
     78a:	01e3      	lsls	r3, r4, #7
     78c:	d41b      	bmi.n	7c6 <CAN1_Handler+0x52>
		dev->cb.irq_handler(dev, CAN_IRQ_EW);
	}

	if (ir & CAN_IR_EP) {
     78e:	0223      	lsls	r3, r4, #8
     790:	d507      	bpl.n	7a2 <CAN1_Handler+0x2e>
		dev->cb.irq_handler(dev, hri_can_get_PSR_EP_bit(dev->hw) ? CAN_IRQ_EP : CAN_IRQ_EA);
     792:	68eb      	ldr	r3, [r5, #12]
     794:	682a      	ldr	r2, [r5, #0]
	return (((Can *)hw)->PSR.reg & CAN_PSR_EP) >> CAN_PSR_EP_Pos;
     796:	6c52      	ldr	r2, [r2, #68]	; 0x44
     798:	0692      	lsls	r2, r2, #26
     79a:	d519      	bpl.n	7d0 <CAN1_Handler+0x5c>
     79c:	2102      	movs	r1, #2
     79e:	0028      	movs	r0, r5
     7a0:	4798      	blx	r3
	}

	if (ir & CAN_IR_RF0L) {
     7a2:	0723      	lsls	r3, r4, #28
     7a4:	d416      	bmi.n	7d4 <CAN1_Handler+0x60>
		dev->cb.irq_handler(dev, CAN_IRQ_DO);
	}

	hri_can_write_IR_reg(dev->hw, ir);
     7a6:	682b      	ldr	r3, [r5, #0]
	((Can *)hw)->IR.reg = data;
     7a8:	651c      	str	r4, [r3, #80]	; 0x50
}
     7aa:	bd70      	pop	{r4, r5, r6, pc}
		dev->cb.rx_done(dev);
     7ac:	0028      	movs	r0, r5
     7ae:	68ab      	ldr	r3, [r5, #8]
     7b0:	4798      	blx	r3
     7b2:	e7e6      	b.n	782 <CAN1_Handler+0xe>
		dev->cb.tx_done(dev);
     7b4:	0028      	movs	r0, r5
     7b6:	686b      	ldr	r3, [r5, #4]
     7b8:	4798      	blx	r3
     7ba:	e7e4      	b.n	786 <CAN1_Handler+0x12>
		dev->cb.irq_handler(dev, CAN_IRQ_BO);
     7bc:	2103      	movs	r1, #3
     7be:	0028      	movs	r0, r5
     7c0:	68eb      	ldr	r3, [r5, #12]
     7c2:	4798      	blx	r3
     7c4:	e7e1      	b.n	78a <CAN1_Handler+0x16>
		dev->cb.irq_handler(dev, CAN_IRQ_EW);
     7c6:	2100      	movs	r1, #0
     7c8:	0028      	movs	r0, r5
     7ca:	68eb      	ldr	r3, [r5, #12]
     7cc:	4798      	blx	r3
     7ce:	e7de      	b.n	78e <CAN1_Handler+0x1a>
		dev->cb.irq_handler(dev, hri_can_get_PSR_EP_bit(dev->hw) ? CAN_IRQ_EP : CAN_IRQ_EA);
     7d0:	2101      	movs	r1, #1
     7d2:	e7e4      	b.n	79e <CAN1_Handler+0x2a>
		dev->cb.irq_handler(dev, CAN_IRQ_DO);
     7d4:	2104      	movs	r1, #4
     7d6:	0028      	movs	r0, r5
     7d8:	68eb      	ldr	r3, [r5, #12]
     7da:	4798      	blx	r3
     7dc:	e7e3      	b.n	7a6 <CAN1_Handler+0x32>
     7de:	46c0      	nop			; (mov r8, r8)
     7e0:	20000208 	.word	0x20000208

000007e4 <_init_chip>:

/**
 * \brief Initialize the hardware abstraction layer
 */
void _init_chip(void)
{
     7e4:	b510      	push	{r4, lr}
}

static inline void hri_nvmctrl_set_CTRLB_RWS_bf(const void *const hw, hri_nvmctrl_ctrlb_reg_t mask)
{
	NVMCTRL_CRITICAL_SECTION_ENTER();
	((Nvmctrl *)hw)->CTRLB.reg |= NVMCTRL_CTRLB_RWS(mask);
     7e6:	4a09      	ldr	r2, [pc, #36]	; (80c <_init_chip+0x28>)
     7e8:	6853      	ldr	r3, [r2, #4]
     7ea:	2104      	movs	r1, #4
     7ec:	430b      	orrs	r3, r1
     7ee:	6053      	str	r3, [r2, #4]
	hri_nvmctrl_set_CTRLB_RWS_bf(NVMCTRL, CONF_NVM_WAIT_STATE);

	_osc32kctrl_init_sources();
     7f0:	4b07      	ldr	r3, [pc, #28]	; (810 <_init_chip+0x2c>)
     7f2:	4798      	blx	r3
	_oscctrl_init_sources();
     7f4:	4b07      	ldr	r3, [pc, #28]	; (814 <_init_chip+0x30>)
     7f6:	4798      	blx	r3
	_mclk_init();
     7f8:	4b07      	ldr	r3, [pc, #28]	; (818 <_init_chip+0x34>)
     7fa:	4798      	blx	r3
#if _GCLK_INIT_1ST
	_gclk_init_generators_by_fref(_GCLK_INIT_1ST);
#endif
	_oscctrl_init_referenced_generators();
     7fc:	4b07      	ldr	r3, [pc, #28]	; (81c <_init_chip+0x38>)
     7fe:	4798      	blx	r3
	_gclk_init_generators_by_fref(_GCLK_INIT_LAST);
     800:	20ff      	movs	r0, #255	; 0xff
     802:	4b07      	ldr	r3, [pc, #28]	; (820 <_init_chip+0x3c>)
     804:	4798      	blx	r3

	_div_init();
     806:	4b07      	ldr	r3, [pc, #28]	; (824 <_init_chip+0x40>)
     808:	4798      	blx	r3
#endif

#if (CONF_PORT_EVCTRL_PORT_0 | CONF_PORT_EVCTRL_PORT_1 | CONF_PORT_EVCTRL_PORT_2 | CONF_PORT_EVCTRL_PORT_3)
	_port_event_init();
#endif
}
     80a:	bd10      	pop	{r4, pc}
     80c:	41004000 	.word	0x41004000
     810:	0000096d 	.word	0x0000096d
     814:	00000991 	.word	0x00000991
     818:	000008cd 	.word	0x000008cd
     81c:	00000995 	.word	0x00000995
     820:	000008a9 	.word	0x000008a9
     824:	00000829 	.word	0x00000829

00000828 <_div_init>:

static inline void hri_divas_write_CTRLA_DLZ_bit(const void *const hw, bool value)
{
	uint8_t tmp;
	DIVAS_CRITICAL_SECTION_ENTER();
	tmp = ((Divas *)hw)->CTRLA.reg;
     828:	2290      	movs	r2, #144	; 0x90
     82a:	05d2      	lsls	r2, r2, #23
     82c:	7813      	ldrb	r3, [r2, #0]
	tmp &= ~DIVAS_CTRLA_DLZ;
     82e:	2102      	movs	r1, #2
     830:	438b      	bics	r3, r1
	tmp |= value << DIVAS_CTRLA_DLZ_Pos;
	((Divas *)hw)->CTRLA.reg = tmp;
     832:	7013      	strb	r3, [r2, #0]
 * \brief Initialize hardware for division operation
 */
void _div_init(void)
{
	hri_divas_write_CTRLA_DLZ_bit(DIVAS, CONF_DIVAS_DLZ);
}
     834:	4770      	bx	lr

00000836 <__aeabi_uidiv>:

/**
 * \brief Do unsigned division
 */
uint32_t __aeabi_uidiv(uint32_t numerator, uint32_t denominator)
{
     836:	b510      	push	{r4, lr}
     838:	b082      	sub	sp, #8
  __ASM volatile ("MRS %0, primask" : "=r" (result) :: "memory");
     83a:	f3ef 8310 	mrs	r3, PRIMASK
	uint32_t res;
	_DIVAS_CRITICAL_ENTER();
     83e:	9301      	str	r3, [sp, #4]
  __ASM volatile ("cpsid i" : : : "memory");
     840:	b672      	cpsid	i
	DIVAS->CTRLA.bit.SIGNED = s;
     842:	2390      	movs	r3, #144	; 0x90
     844:	05db      	lsls	r3, r3, #23
     846:	781a      	ldrb	r2, [r3, #0]
     848:	2401      	movs	r4, #1
     84a:	43a2      	bics	r2, r4
     84c:	701a      	strb	r2, [r3, #0]
	DIVAS->DIVIDEND.reg     = n;
     84e:	6098      	str	r0, [r3, #8]
	DIVAS->DIVISOR.reg      = d;
     850:	60d9      	str	r1, [r3, #12]
	while (DIVAS->STATUS.bit.BUSY) {
     852:	2390      	movs	r3, #144	; 0x90
     854:	05db      	lsls	r3, r3, #23
     856:	791b      	ldrb	r3, [r3, #4]
     858:	07db      	lsls	r3, r3, #31
     85a:	d4fa      	bmi.n	852 <__aeabi_uidiv+0x1c>
	_divas_div(0, numerator, denominator);
	res = _divas_result32();
     85c:	2390      	movs	r3, #144	; 0x90
     85e:	05db      	lsls	r3, r3, #23
     860:	6918      	ldr	r0, [r3, #16]
	_DIVAS_CRITICAL_LEAVE();
     862:	9b01      	ldr	r3, [sp, #4]
  __ASM volatile ("MSR primask, %0" : : "r" (priMask) : "memory");
     864:	f383 8810 	msr	PRIMASK, r3
	return res;
}
     868:	b002      	add	sp, #8
     86a:	bd10      	pop	{r4, pc}

0000086c <__aeabi_uidivmod>:

/**
 * \brief Do unsigned division, return result and remainder
 */
uint64_t __aeabi_uidivmod(unsigned numerator, unsigned denominator)
{
     86c:	b510      	push	{r4, lr}
     86e:	b082      	sub	sp, #8
  __ASM volatile ("MRS %0, primask" : "=r" (result) :: "memory");
     870:	f3ef 8310 	mrs	r3, PRIMASK
	uint64_t res;
	_DIVAS_CRITICAL_ENTER();
     874:	9301      	str	r3, [sp, #4]
  __ASM volatile ("cpsid i" : : : "memory");
     876:	b672      	cpsid	i
	DIVAS->CTRLA.bit.SIGNED = s;
     878:	2390      	movs	r3, #144	; 0x90
     87a:	05db      	lsls	r3, r3, #23
     87c:	781a      	ldrb	r2, [r3, #0]
     87e:	2401      	movs	r4, #1
     880:	43a2      	bics	r2, r4
     882:	701a      	strb	r2, [r3, #0]
	DIVAS->DIVIDEND.reg     = n;
     884:	6098      	str	r0, [r3, #8]
	DIVAS->DIVISOR.reg      = d;
     886:	60d9      	str	r1, [r3, #12]
	while (DIVAS->STATUS.bit.BUSY) {
     888:	2390      	movs	r3, #144	; 0x90
     88a:	05db      	lsls	r3, r3, #23
     88c:	791b      	ldrb	r3, [r3, #4]
     88e:	07db      	lsls	r3, r3, #31
     890:	d4fa      	bmi.n	888 <__aeabi_uidivmod+0x1c>
	_divas_div(0, numerator, denominator);
	res = _divas_result64();
     892:	4b04      	ldr	r3, [pc, #16]	; (8a4 <__aeabi_uidivmod+0x38>)
     894:	6818      	ldr	r0, [r3, #0]
     896:	6859      	ldr	r1, [r3, #4]
	_DIVAS_CRITICAL_LEAVE();
     898:	9b01      	ldr	r3, [sp, #4]
  __ASM volatile ("MSR primask, %0" : : "r" (priMask) : "memory");
     89a:	f383 8810 	msr	PRIMASK, r3
	return res;
}
     89e:	b002      	add	sp, #8
     8a0:	bd10      	pop	{r4, pc}
     8a2:	46c0      	nop			; (mov r8, r8)
     8a4:	48000010 	.word	0x48000010

000008a8 <_gclk_init_generators_by_fref>:

void _gclk_init_generators_by_fref(uint32_t bm)
{

#if CONF_GCLK_GENERATOR_0_CONFIG == 1
	if (bm & (1ul << 0)) {
     8a8:	07c3      	lsls	r3, r0, #31
     8aa:	d507      	bpl.n	8bc <_gclk_init_generators_by_fref+0x14>
	((Gclk *)hw)->GENCTRL[index].reg = data;
     8ac:	4a04      	ldr	r2, [pc, #16]	; (8c0 <_gclk_init_generators_by_fref+0x18>)
     8ae:	4b05      	ldr	r3, [pc, #20]	; (8c4 <_gclk_init_generators_by_fref+0x1c>)
     8b0:	621a      	str	r2, [r3, #32]
	while (((Gclk *)hw)->SYNCBUSY.reg & reg) {
     8b2:	4b04      	ldr	r3, [pc, #16]	; (8c4 <_gclk_init_generators_by_fref+0x1c>)
     8b4:	685a      	ldr	r2, [r3, #4]
     8b6:	4b04      	ldr	r3, [pc, #16]	; (8c8 <_gclk_init_generators_by_fref+0x20>)
     8b8:	421a      	tst	r2, r3
     8ba:	d1fa      	bne.n	8b2 <_gclk_init_generators_by_fref+0xa>
		        | (CONF_GCLK_GEN_8_DIVSEL << GCLK_GENCTRL_DIVSEL_Pos) | (CONF_GCLK_GEN_8_OE << GCLK_GENCTRL_OE_Pos)
		        | (CONF_GCLK_GEN_8_OOV << GCLK_GENCTRL_OOV_Pos) | (CONF_GCLK_GEN_8_IDC << GCLK_GENCTRL_IDC_Pos)
		        | (CONF_GCLK_GENERATOR_8_CONFIG << GCLK_GENCTRL_GENEN_Pos) | CONF_GCLK_GEN_8_SOURCE);
	}
#endif
}
     8bc:	4770      	bx	lr
     8be:	46c0      	nop			; (mov r8, r8)
     8c0:	00010107 	.word	0x00010107
     8c4:	40001c00 	.word	0x40001c00
     8c8:	000007fd 	.word	0x000007fd

000008cc <_mclk_init>:
	((Mclk *)hw)->CPUDIV.reg = data;
     8cc:	2201      	movs	r2, #1
     8ce:	4b01      	ldr	r3, [pc, #4]	; (8d4 <_mclk_init+0x8>)
     8d0:	711a      	strb	r2, [r3, #4]
 */
void _mclk_init(void)
{
	void *hw = (void *)MCLK;
	hri_mclk_write_CPUDIV_reg(hw, MCLK_CPUDIV_CPUDIV(CONF_MCLK_CPUDIV));
}
     8d2:	4770      	bx	lr
     8d4:	40000800 	.word	0x40000800

000008d8 <_flash_init>:

/**
 * \brief Initialize NVM
 */
int32_t _flash_init(struct _flash_device *const device, void *const hw)
{
     8d8:	b570      	push	{r4, r5, r6, lr}
     8da:	0005      	movs	r5, r0
     8dc:	000c      	movs	r4, r1
	ASSERT(device && (hw == NVMCTRL));
     8de:	2800      	cmp	r0, #0
     8e0:	d01c      	beq.n	91c <_flash_init+0x44>
     8e2:	4b10      	ldr	r3, [pc, #64]	; (924 <_flash_init+0x4c>)
     8e4:	4299      	cmp	r1, r3
     8e6:	d01b      	beq.n	920 <_flash_init+0x48>
     8e8:	2000      	movs	r0, #0
     8ea:	2246      	movs	r2, #70	; 0x46
     8ec:	490e      	ldr	r1, [pc, #56]	; (928 <_flash_init+0x50>)
     8ee:	4b0f      	ldr	r3, [pc, #60]	; (92c <_flash_init+0x54>)
     8f0:	4798      	blx	r3
	uint32_t ctrlb;

	device->hw = hw;
     8f2:	612c      	str	r4, [r5, #16]
}

static inline hri_nvmctrl_ctrlb_reg_t hri_nvmctrl_get_CTRLB_reg(const void *const hw, hri_nvmctrl_ctrlb_reg_t mask)
{
	uint32_t tmp;
	tmp = ((Nvmctrl *)hw)->CTRLB.reg;
     8f4:	6862      	ldr	r2, [r4, #4]
	tmp &= mask;
     8f6:	239e      	movs	r3, #158	; 0x9e
     8f8:	4013      	ands	r3, r2
}

static inline void hri_nvmctrl_write_CTRLB_reg(const void *const hw, hri_nvmctrl_ctrlb_reg_t data)
{
	NVMCTRL_CRITICAL_SECTION_ENTER();
	((Nvmctrl *)hw)->CTRLB.reg = data;
     8fa:	6063      	str	r3, [r4, #4]
	ctrlb      = _nvm.ctrlb & ~(NVMCTRL_CTRLB_RWS_Msk | NVMCTRL_CTRLB_MANW);
	ctrlb |= hri_nvmctrl_get_CTRLB_reg(device->hw, NVMCTRL_CTRLB_RWS_Msk | NVMCTRL_CTRLB_MANW);
	hri_nvmctrl_write_CTRLB_reg(device->hw, ctrlb);

	_nvm_dev = device;
     8fc:	4b0c      	ldr	r3, [pc, #48]	; (930 <_flash_init+0x58>)
     8fe:	601d      	str	r5, [r3, #0]
    NVIC->ICER[0U] = (uint32_t)(1UL << (((uint32_t)IRQn) & 0x1FUL));
     900:	4b0c      	ldr	r3, [pc, #48]	; (934 <_flash_init+0x5c>)
     902:	2240      	movs	r2, #64	; 0x40
     904:	2180      	movs	r1, #128	; 0x80
     906:	505a      	str	r2, [r3, r1]
  __ASM volatile ("dsb 0xF":::"memory");
     908:	f3bf 8f4f 	dsb	sy
  __ASM volatile ("isb 0xF":::"memory");
     90c:	f3bf 8f6f 	isb	sy
    NVIC->ICPR[0U] = (uint32_t)(1UL << (((uint32_t)IRQn) & 0x1FUL));
     910:	3101      	adds	r1, #1
     912:	31ff      	adds	r1, #255	; 0xff
     914:	505a      	str	r2, [r3, r1]
    NVIC->ISER[0U] = (uint32_t)(1UL << (((uint32_t)IRQn) & 0x1FUL));
     916:	601a      	str	r2, [r3, #0]
	NVIC_DisableIRQ(NVMCTRL_IRQn);
	NVIC_ClearPendingIRQ(NVMCTRL_IRQn);
	NVIC_EnableIRQ(NVMCTRL_IRQn);
	return ERR_NONE;
}
     918:	2000      	movs	r0, #0
     91a:	bd70      	pop	{r4, r5, r6, pc}
	ASSERT(device && (hw == NVMCTRL));
     91c:	2000      	movs	r0, #0
     91e:	e7e4      	b.n	8ea <_flash_init+0x12>
     920:	2001      	movs	r0, #1
     922:	e7e2      	b.n	8ea <_flash_init+0x12>
     924:	41004000 	.word	0x41004000
     928:	000020f0 	.word	0x000020f0
     92c:	00000629 	.word	0x00000629
     930:	20000234 	.word	0x20000234
     934:	e000e100 	.word	0xe000e100

00000938 <_flash_get_page_size>:
 */
uint32_t _flash_get_page_size(struct _flash_device *const device)
{
	(void)device;
	return (uint32_t)NVMCTRL_PAGE_SIZE;
}
     938:	2040      	movs	r0, #64	; 0x40
     93a:	4770      	bx	lr

0000093c <NVMCTRL_Handler>:

/**
 * \internal NVM interrupt handler
 */
void NVMCTRL_Handler(void)
{
     93c:	b510      	push	{r4, lr}
	void *const hw = _nvm_dev->hw;
     93e:	4b0a      	ldr	r3, [pc, #40]	; (968 <NVMCTRL_Handler+0x2c>)
     940:	6818      	ldr	r0, [r3, #0]
     942:	6903      	ldr	r3, [r0, #16]
	return (((Nvmctrl *)hw)->INTFLAG.reg & NVMCTRL_INTFLAG_READY) >> NVMCTRL_INTFLAG_READY_Pos;
     944:	7d1a      	ldrb	r2, [r3, #20]

	if (hri_nvmctrl_get_interrupt_READY_bit(hw)) {
     946:	07d2      	lsls	r2, r2, #31
     948:	d504      	bpl.n	954 <NVMCTRL_Handler+0x18>
		if (NULL != _nvm_dev->flash_cb.ready_cb) {
     94a:	6803      	ldr	r3, [r0, #0]
     94c:	2b00      	cmp	r3, #0
     94e:	d000      	beq.n	952 <NVMCTRL_Handler+0x16>
			_nvm_dev->flash_cb.ready_cb(_nvm_dev);
     950:	4798      	blx	r3
		hri_nvmctrl_clear_interrupt_ERROR_bit(hw);
		if (NULL != _nvm_dev->flash_cb.error_cb) {
			_nvm_dev->flash_cb.error_cb(_nvm_dev);
		}
	}
}
     952:	bd10      	pop	{r4, pc}
	return (((Nvmctrl *)hw)->INTFLAG.reg & NVMCTRL_INTFLAG_ERROR) >> NVMCTRL_INTFLAG_ERROR_Pos;
     954:	7d1a      	ldrb	r2, [r3, #20]
	} else if (hri_nvmctrl_get_interrupt_ERROR_bit(hw)) {
     956:	0792      	lsls	r2, r2, #30
     958:	d5fb      	bpl.n	952 <NVMCTRL_Handler+0x16>
	((Nvmctrl *)hw)->INTFLAG.reg = NVMCTRL_INTFLAG_ERROR;
     95a:	2202      	movs	r2, #2
     95c:	751a      	strb	r2, [r3, #20]
		if (NULL != _nvm_dev->flash_cb.error_cb) {
     95e:	6843      	ldr	r3, [r0, #4]
     960:	2b00      	cmp	r3, #0
     962:	d0f6      	beq.n	952 <NVMCTRL_Handler+0x16>
			_nvm_dev->flash_cb.error_cb(_nvm_dev);
     964:	4798      	blx	r3
}
     966:	e7f4      	b.n	952 <NVMCTRL_Handler+0x16>
     968:	20000234 	.word	0x20000234

0000096c <_osc32kctrl_init_sources>:
}

static inline void hri_osc32kctrl_write_XOSC32K_reg(const void *const hw, hri_osc32kctrl_xosc32k_reg_t data)
{
	OSC32KCTRL_CRITICAL_SECTION_ENTER();
	((Osc32kctrl *)hw)->XOSC32K.reg = data;
     96c:	4a07      	ldr	r2, [pc, #28]	; (98c <_osc32kctrl_init_sources+0x20>)
     96e:	238e      	movs	r3, #142	; 0x8e
     970:	8293      	strh	r3, [r2, #20]
}

static inline void hri_osc32kctrl_write_CFDCTRL_reg(const void *const hw, hri_osc32kctrl_cfdctrl_reg_t data)
{
	OSC32KCTRL_CRITICAL_SECTION_ENTER();
	((Osc32kctrl *)hw)->CFDCTRL.reg = data;
     972:	2300      	movs	r3, #0
     974:	7593      	strb	r3, [r2, #22]
}

static inline void hri_osc32kctrl_write_EVCTRL_reg(const void *const hw, hri_osc32kctrl_evctrl_reg_t data)
{
	OSC32KCTRL_CRITICAL_SECTION_ENTER();
	((Osc32kctrl *)hw)->EVCTRL.reg = data;
     976:	75d3      	strb	r3, [r2, #23]
}

static inline hri_osc32kctrl_osculp32k_reg_t hri_osc32kctrl_read_OSCULP32K_CALIB_bf(const void *const hw)
{
	uint32_t tmp;
	tmp = ((Osc32kctrl *)hw)->OSCULP32K.reg;
     978:	69d3      	ldr	r3, [r2, #28]
	tmp = (tmp & OSC32KCTRL_OSCULP32K_CALIB_Msk) >> OSC32KCTRL_OSCULP32K_CALIB_Pos;
     97a:	0a1b      	lsrs	r3, r3, #8
	calib = hri_osc32kctrl_read_OSCULP32K_CALIB_bf(hw);
	hri_osc32kctrl_write_OSCULP32K_reg(hw,
#if CONF_OSC32K_CALIB_ENABLE == 1
	                                   OSC32KCTRL_OSCULP32K_CALIB(CONF_OSC32K_CALIB)
#else
	                                   OSC32KCTRL_OSCULP32K_CALIB(calib)
     97c:	021b      	lsls	r3, r3, #8
     97e:	21f8      	movs	r1, #248	; 0xf8
     980:	0149      	lsls	r1, r1, #5
     982:	400b      	ands	r3, r1
}

static inline void hri_osc32kctrl_write_OSCULP32K_reg(const void *const hw, hri_osc32kctrl_osculp32k_reg_t data)
{
	OSC32KCTRL_CRITICAL_SECTION_ENTER();
	((Osc32kctrl *)hw)->OSCULP32K.reg = data;
     984:	61d3      	str	r3, [r2, #28]
	((Osc32kctrl *)hw)->RTCCTRL.reg = data;
     986:	2301      	movs	r3, #1
     988:	6113      	str	r3, [r2, #16]
		;
#endif
#endif
	hri_osc32kctrl_write_RTCCTRL_reg(hw, OSC32KCTRL_RTCCTRL_RTCSEL(CONF_RTCCTRL));
	(void)calib;
}
     98a:	4770      	bx	lr
     98c:	40001400 	.word	0x40001400

00000990 <_oscctrl_init_sources>:
#if CONF_OSC48M_ONDEMAND == 1
	hri_oscctrl_set_OSC48MCTRL_ONDEMAND_bit(hw);
#endif
#endif
	(void)hw;
}
     990:	4770      	bx	lr
	...

00000994 <_oscctrl_init_referenced_generators>:
}

static inline void hri_oscctrl_write_DPLLRATIO_reg(const void *const hw, hri_oscctrl_dpllratio_reg_t data)
{
	OSCCTRL_CRITICAL_SECTION_ENTER();
	((Oscctrl *)hw)->DPLLRATIO.reg = data;
     994:	4a19      	ldr	r2, [pc, #100]	; (9fc <_oscctrl_init_referenced_generators+0x68>)
     996:	4b1a      	ldr	r3, [pc, #104]	; (a00 <_oscctrl_init_referenced_generators+0x6c>)
     998:	621a      	str	r2, [r3, #32]
	while (((Oscctrl *)hw)->DPLLSYNCBUSY.reg & reg) {
     99a:	232c      	movs	r3, #44	; 0x2c
     99c:	4a18      	ldr	r2, [pc, #96]	; (a00 <_oscctrl_init_referenced_generators+0x6c>)
     99e:	5cd2      	ldrb	r2, [r2, r3]
     9a0:	3b1e      	subs	r3, #30
     9a2:	421a      	tst	r2, r3
     9a4:	d1f9      	bne.n	99a <_oscctrl_init_referenced_generators+0x6>
}

static inline void hri_oscctrl_write_DPLLCTRLB_reg(const void *const hw, hri_oscctrl_dpllctrlb_reg_t data)
{
	OSCCTRL_CRITICAL_SECTION_ENTER();
	((Oscctrl *)hw)->DPLLCTRLB.reg = data;
     9a6:	4b16      	ldr	r3, [pc, #88]	; (a00 <_oscctrl_init_referenced_generators+0x6c>)
     9a8:	2200      	movs	r2, #0
     9aa:	625a      	str	r2, [r3, #36]	; 0x24
}

static inline void hri_oscctrl_write_DPLLPRESC_reg(const void *const hw, hri_oscctrl_dpllpresc_reg_t data)
{
	OSCCTRL_CRITICAL_SECTION_ENTER();
	((Oscctrl *)hw)->DPLLPRESC.reg = data;
     9ac:	2128      	movs	r1, #40	; 0x28
     9ae:	545a      	strb	r2, [r3, r1]
	while (((Oscctrl *)hw)->DPLLSYNCBUSY.reg & reg) {
     9b0:	232c      	movs	r3, #44	; 0x2c
     9b2:	4a13      	ldr	r2, [pc, #76]	; (a00 <_oscctrl_init_referenced_generators+0x6c>)
     9b4:	5cd2      	ldrb	r2, [r2, r3]
     9b6:	3b1e      	subs	r3, #30
     9b8:	421a      	tst	r2, r3
     9ba:	d1f9      	bne.n	9b0 <_oscctrl_init_referenced_generators+0x1c>
	((Oscctrl *)hw)->DPLLCTRLA.reg = data;
     9bc:	2202      	movs	r2, #2
     9be:	4b10      	ldr	r3, [pc, #64]	; (a00 <_oscctrl_init_referenced_generators+0x6c>)
     9c0:	771a      	strb	r2, [r3, #28]
	while (((Oscctrl *)hw)->DPLLSYNCBUSY.reg & reg) {
     9c2:	232c      	movs	r3, #44	; 0x2c
     9c4:	4a0e      	ldr	r2, [pc, #56]	; (a00 <_oscctrl_init_referenced_generators+0x6c>)
     9c6:	5cd3      	ldrb	r3, [r2, r3]
     9c8:	079b      	lsls	r3, r3, #30
     9ca:	d4fa      	bmi.n	9c2 <_oscctrl_init_referenced_generators+0x2e>
	return (((Oscctrl *)hw)->DPLLSTATUS.reg & OSCCTRL_DPLLSTATUS_LOCK) >> OSCCTRL_DPLLSTATUS_LOCK_Pos;
     9cc:	2330      	movs	r3, #48	; 0x30
     9ce:	4a0c      	ldr	r2, [pc, #48]	; (a00 <_oscctrl_init_referenced_generators+0x6c>)
     9d0:	5cd3      	ldrb	r3, [r2, r3]
	                                    | (CONF_DPLL_ENABLE << OSCCTRL_DPLLCTRLA_ENABLE_Pos));
#endif

#if CONF_DPLL_CONFIG == 1
#if CONF_DPLL_ENABLE == 1
	while (!(hri_oscctrl_get_DPLLSTATUS_LOCK_bit(hw) || hri_oscctrl_get_DPLLSTATUS_CLKRDY_bit(hw)))
     9d2:	07db      	lsls	r3, r3, #31
     9d4:	d403      	bmi.n	9de <_oscctrl_init_referenced_generators+0x4a>
	return (((Oscctrl *)hw)->DPLLSTATUS.reg & OSCCTRL_DPLLSTATUS_CLKRDY) >> OSCCTRL_DPLLSTATUS_CLKRDY_Pos;
     9d6:	2330      	movs	r3, #48	; 0x30
     9d8:	5cd3      	ldrb	r3, [r2, r3]
     9da:	079b      	lsls	r3, r3, #30
     9dc:	d5f6      	bpl.n	9cc <_oscctrl_init_referenced_generators+0x38>
	((Oscctrl *)hw)->DPLLCTRLA.reg |= OSCCTRL_DPLLCTRLA_ONDEMAND;
     9de:	4a08      	ldr	r2, [pc, #32]	; (a00 <_oscctrl_init_referenced_generators+0x6c>)
     9e0:	7f13      	ldrb	r3, [r2, #28]
     9e2:	2180      	movs	r1, #128	; 0x80
     9e4:	4249      	negs	r1, r1
     9e6:	430b      	orrs	r3, r1
     9e8:	b2db      	uxtb	r3, r3
     9ea:	7713      	strb	r3, [r2, #28]
	while (((Oscctrl *)hw)->DPLLSYNCBUSY.reg & reg) {
     9ec:	232c      	movs	r3, #44	; 0x2c
     9ee:	4a04      	ldr	r2, [pc, #16]	; (a00 <_oscctrl_init_referenced_generators+0x6c>)
     9f0:	5cd2      	ldrb	r2, [r2, r3]
     9f2:	3b1e      	subs	r3, #30
     9f4:	421a      	tst	r2, r3
     9f6:	d1f9      	bne.n	9ec <_oscctrl_init_referenced_generators+0x58>
#if CONF_DPLL_ONDEMAND == 1
	hri_oscctrl_set_DPLLCTRLA_ONDEMAND_bit(hw);
#endif
#endif
	(void)hw;
}
     9f8:	4770      	bx	lr
     9fa:	46c0      	nop			; (mov r8, r8)
     9fc:	000d05b7 	.word	0x000d05b7
     a00:	40001000 	.word	0x40001000

00000a04 <_sercom_get_hardware_index>:

/**
 * \brief Retrieve ordinal number of the given sercom hardware instance
 */
static uint8_t _sercom_get_hardware_index(const void *const hw)
{
     a04:	b530      	push	{r4, r5, lr}
     a06:	b089      	sub	sp, #36	; 0x24
	Sercom *const sercom_modules[] = SERCOM_INSTS;
     a08:	4c0b      	ldr	r4, [pc, #44]	; (a38 <_sercom_get_hardware_index+0x34>)
     a0a:	466b      	mov	r3, sp
     a0c:	0022      	movs	r2, r4
     a0e:	ca32      	ldmia	r2!, {r1, r4, r5}
     a10:	c332      	stmia	r3!, {r1, r4, r5}
     a12:	ca32      	ldmia	r2!, {r1, r4, r5}
     a14:	c332      	stmia	r3!, {r1, r4, r5}
     a16:	ca12      	ldmia	r2!, {r1, r4}
     a18:	c312      	stmia	r3!, {r1, r4}
	/* Find index for SERCOM instance. */
	for (uint32_t i = 0; i < SERCOM_INST_NUM; i++) {
     a1a:	2300      	movs	r3, #0
     a1c:	2b07      	cmp	r3, #7
     a1e:	d808      	bhi.n	a32 <_sercom_get_hardware_index+0x2e>
		if ((uint32_t)hw == (uint32_t)sercom_modules[i]) {
     a20:	009a      	lsls	r2, r3, #2
     a22:	4669      	mov	r1, sp
     a24:	5852      	ldr	r2, [r2, r1]
     a26:	4282      	cmp	r2, r0
     a28:	d001      	beq.n	a2e <_sercom_get_hardware_index+0x2a>
	for (uint32_t i = 0; i < SERCOM_INST_NUM; i++) {
     a2a:	3301      	adds	r3, #1
     a2c:	e7f6      	b.n	a1c <_sercom_get_hardware_index+0x18>
			return i;
     a2e:	b2d8      	uxtb	r0, r3
     a30:	e000      	b.n	a34 <_sercom_get_hardware_index+0x30>
		}
	}
	return 0;
     a32:	2000      	movs	r0, #0
}
     a34:	b009      	add	sp, #36	; 0x24
     a36:	bd30      	pop	{r4, r5, pc}
     a38:	00002110 	.word	0x00002110

00000a3c <_get_sercom_index>:
 * \param[in] hw The pointer to hardware instance

 * \return The ordinal number of the given sercom hardware instance
 */
static uint8_t _get_sercom_index(const void *const hw)
{
     a3c:	b510      	push	{r4, lr}
	uint8_t sercom_offset = _sercom_get_hardware_index(hw);
     a3e:	4b0c      	ldr	r3, [pc, #48]	; (a70 <_get_sercom_index+0x34>)
     a40:	4798      	blx	r3
     a42:	0002      	movs	r2, r0
	uint8_t i;

	for (i = 0; i < ARRAY_SIZE(_usarts); i++) {
     a44:	2000      	movs	r0, #0
     a46:	2800      	cmp	r0, #0
     a48:	d006      	beq.n	a58 <_get_sercom_index+0x1c>
		if (_usarts[i].number == sercom_offset) {
			return i;
		}
	}

	ASSERT(false);
     a4a:	4a0a      	ldr	r2, [pc, #40]	; (a74 <_get_sercom_index+0x38>)
     a4c:	490a      	ldr	r1, [pc, #40]	; (a78 <_get_sercom_index+0x3c>)
     a4e:	2000      	movs	r0, #0
     a50:	4b0a      	ldr	r3, [pc, #40]	; (a7c <_get_sercom_index+0x40>)
     a52:	4798      	blx	r3
	return 0;
     a54:	2000      	movs	r0, #0
}
     a56:	bd10      	pop	{r4, pc}
		if (_usarts[i].number == sercom_offset) {
     a58:	0083      	lsls	r3, r0, #2
     a5a:	181b      	adds	r3, r3, r0
     a5c:	0099      	lsls	r1, r3, #2
     a5e:	4b08      	ldr	r3, [pc, #32]	; (a80 <_get_sercom_index+0x44>)
     a60:	185b      	adds	r3, r3, r1
     a62:	2120      	movs	r1, #32
     a64:	5c5b      	ldrb	r3, [r3, r1]
     a66:	429a      	cmp	r2, r3
     a68:	d0f5      	beq.n	a56 <_get_sercom_index+0x1a>
	for (i = 0; i < ARRAY_SIZE(_usarts); i++) {
     a6a:	3001      	adds	r0, #1
     a6c:	b2c0      	uxtb	r0, r0
     a6e:	e7ea      	b.n	a46 <_get_sercom_index+0xa>
     a70:	00000a05 	.word	0x00000a05
     a74:	0000023d 	.word	0x0000023d
     a78:	00002180 	.word	0x00002180
     a7c:	00000629 	.word	0x00000629
     a80:	00002110 	.word	0x00002110

00000a84 <_usart_init>:
 * \param[in] hw The pointer to hardware instance
 *
 * \return The status of initialization
 */
static int32_t _usart_init(void *const hw)
{
     a84:	b570      	push	{r4, r5, r6, lr}
     a86:	0004      	movs	r4, r0
	uint8_t i = _get_sercom_index(hw);
     a88:	4b3b      	ldr	r3, [pc, #236]	; (b78 <_usart_init+0xf4>)
     a8a:	4798      	blx	r3
	};
}

static inline bool hri_sercomusart_is_syncing(const void *const hw, hri_sercomusart_syncbusy_reg_t reg)
{
	return ((Sercom *)hw)->USART.SYNCBUSY.reg & reg;
     a8c:	69e3      	ldr	r3, [r4, #28]

	if (!hri_sercomusart_is_syncing(hw, SERCOM_USART_SYNCBUSY_SWRST)) {
     a8e:	07db      	lsls	r3, r3, #31
     a90:	d41d      	bmi.n	ace <_usart_init+0x4a>
		uint32_t mode = _usarts[i].ctrl_a & SERCOM_USART_CTRLA_MODE_Msk;
     a92:	0083      	lsls	r3, r0, #2
     a94:	181b      	adds	r3, r3, r0
     a96:	009a      	lsls	r2, r3, #2
     a98:	4b38      	ldr	r3, [pc, #224]	; (b7c <_usart_init+0xf8>)
     a9a:	189b      	adds	r3, r3, r2
     a9c:	6a5a      	ldr	r2, [r3, #36]	; 0x24
     a9e:	231c      	movs	r3, #28
     aa0:	401a      	ands	r2, r3
	while (((Sercom *)hw)->USART.SYNCBUSY.reg & reg) {
     aa2:	69e3      	ldr	r3, [r4, #28]
     aa4:	079b      	lsls	r3, r3, #30
     aa6:	d1fc      	bne.n	aa2 <_usart_init+0x1e>
static inline hri_sercomusart_ctrla_reg_t hri_sercomusart_get_CTRLA_reg(const void *const           hw,
                                                                        hri_sercomusart_ctrla_reg_t mask)
{
	uint32_t tmp;
	hri_sercomusart_wait_for_sync(hw, SERCOM_USART_SYNCBUSY_SWRST | SERCOM_USART_SYNCBUSY_ENABLE);
	tmp = ((Sercom *)hw)->USART.CTRLA.reg;
     aa8:	6823      	ldr	r3, [r4, #0]
		if (hri_sercomusart_get_CTRLA_reg(hw, SERCOM_USART_CTRLA_ENABLE)) {
     aaa:	079b      	lsls	r3, r3, #30
     aac:	d509      	bpl.n	ac2 <_usart_init+0x3e>
	((Sercom *)hw)->USART.CTRLA.reg &= ~SERCOM_USART_CTRLA_ENABLE;
     aae:	6823      	ldr	r3, [r4, #0]
     ab0:	2102      	movs	r1, #2
     ab2:	438b      	bics	r3, r1
     ab4:	6023      	str	r3, [r4, #0]
	while (((Sercom *)hw)->USART.SYNCBUSY.reg & reg) {
     ab6:	69e3      	ldr	r3, [r4, #28]
     ab8:	079b      	lsls	r3, r3, #30
     aba:	d1fc      	bne.n	ab6 <_usart_init+0x32>
     abc:	69e3      	ldr	r3, [r4, #28]
     abe:	079b      	lsls	r3, r3, #30
     ac0:	d4fc      	bmi.n	abc <_usart_init+0x38>
			hri_sercomusart_clear_CTRLA_ENABLE_bit(hw);
			hri_sercomusart_wait_for_sync(hw, SERCOM_USART_SYNCBUSY_ENABLE);
		}
		hri_sercomusart_write_CTRLA_reg(hw, SERCOM_USART_CTRLA_SWRST | mode);
     ac2:	2301      	movs	r3, #1
     ac4:	4313      	orrs	r3, r2
}

static inline void hri_sercomusart_write_CTRLA_reg(const void *const hw, hri_sercomusart_ctrla_reg_t data)
{
	SERCOM_CRITICAL_SECTION_ENTER();
	((Sercom *)hw)->USART.CTRLA.reg = data;
     ac6:	6023      	str	r3, [r4, #0]
	while (((Sercom *)hw)->USART.SYNCBUSY.reg & reg) {
     ac8:	69e3      	ldr	r3, [r4, #28]
     aca:	079b      	lsls	r3, r3, #30
     acc:	d1fc      	bne.n	ac8 <_usart_init+0x44>
     ace:	69e3      	ldr	r3, [r4, #28]
     ad0:	07db      	lsls	r3, r3, #31
     ad2:	d4fc      	bmi.n	ace <_usart_init+0x4a>
	}
	hri_sercomusart_wait_for_sync(hw, SERCOM_USART_SYNCBUSY_SWRST);

	hri_sercomusart_write_CTRLA_reg(hw, _usarts[i].ctrl_a);
     ad4:	0083      	lsls	r3, r0, #2
     ad6:	181b      	adds	r3, r3, r0
     ad8:	009a      	lsls	r2, r3, #2
     ada:	4b28      	ldr	r3, [pc, #160]	; (b7c <_usart_init+0xf8>)
     adc:	189b      	adds	r3, r3, r2
     ade:	6a5b      	ldr	r3, [r3, #36]	; 0x24
	((Sercom *)hw)->USART.CTRLA.reg = data;
     ae0:	6023      	str	r3, [r4, #0]
	while (((Sercom *)hw)->USART.SYNCBUSY.reg & reg) {
     ae2:	69e3      	ldr	r3, [r4, #28]
     ae4:	079b      	lsls	r3, r3, #30
     ae6:	d1fc      	bne.n	ae2 <_usart_init+0x5e>
	hri_sercomusart_write_CTRLB_reg(hw, _usarts[i].ctrl_b);
     ae8:	0083      	lsls	r3, r0, #2
     aea:	181b      	adds	r3, r3, r0
     aec:	009a      	lsls	r2, r3, #2
     aee:	4b23      	ldr	r3, [pc, #140]	; (b7c <_usart_init+0xf8>)
     af0:	189b      	adds	r3, r3, r2
     af2:	6a9b      	ldr	r3, [r3, #40]	; 0x28
}

static inline void hri_sercomusart_write_CTRLB_reg(const void *const hw, hri_sercomusart_ctrlb_reg_t data)
{
	SERCOM_CRITICAL_SECTION_ENTER();
	((Sercom *)hw)->USART.CTRLB.reg = data;
     af4:	6063      	str	r3, [r4, #4]
	while (((Sercom *)hw)->USART.SYNCBUSY.reg & reg) {
     af6:	69e3      	ldr	r3, [r4, #28]
     af8:	075b      	lsls	r3, r3, #29
     afa:	d1fc      	bne.n	af6 <_usart_init+0x72>
	if ((_usarts[i].ctrl_a & SERCOM_USART_CTRLA_SAMPR(0x1)) || (_usarts[i].ctrl_a & SERCOM_USART_CTRLA_SAMPR(0x3))) {
     afc:	0083      	lsls	r3, r0, #2
     afe:	181b      	adds	r3, r3, r0
     b00:	009a      	lsls	r2, r3, #2
     b02:	4b1e      	ldr	r3, [pc, #120]	; (b7c <_usart_init+0xf8>)
     b04:	189b      	adds	r3, r3, r2
     b06:	6a5b      	ldr	r3, [r3, #36]	; 0x24
     b08:	049a      	lsls	r2, r3, #18
     b0a:	d40b      	bmi.n	b24 <_usart_init+0xa0>
     b0c:	22c0      	movs	r2, #192	; 0xc0
     b0e:	01d2      	lsls	r2, r2, #7
     b10:	4213      	tst	r3, r2
     b12:	d107      	bne.n	b24 <_usart_init+0xa0>
		((Sercom *)hw)->USART.BAUD.FRAC.BAUD = _usarts[i].baud;
		((Sercom *)hw)->USART.BAUD.FRAC.FP   = _usarts[i].fractional;
	} else {
		hri_sercomusart_write_BAUD_reg(hw, _usarts[i].baud);
     b14:	0083      	lsls	r3, r0, #2
     b16:	181b      	adds	r3, r3, r0
     b18:	009a      	lsls	r2, r3, #2
     b1a:	4b18      	ldr	r3, [pc, #96]	; (b7c <_usart_init+0xf8>)
     b1c:	189b      	adds	r3, r3, r2
     b1e:	8d9b      	ldrh	r3, [r3, #44]	; 0x2c
}

static inline void hri_sercomusart_write_BAUD_reg(const void *const hw, hri_sercomusart_baud_reg_t data)
{
	SERCOM_CRITICAL_SECTION_ENTER();
	((Sercom *)hw)->USART.BAUD.reg = data;
     b20:	81a3      	strh	r3, [r4, #12]
     b22:	e019      	b.n	b58 <_usart_init+0xd4>
		((Sercom *)hw)->USART.BAUD.FRAC.BAUD = _usarts[i].baud;
     b24:	4a15      	ldr	r2, [pc, #84]	; (b7c <_usart_init+0xf8>)
     b26:	0081      	lsls	r1, r0, #2
     b28:	180d      	adds	r5, r1, r0
     b2a:	00ab      	lsls	r3, r5, #2
     b2c:	18d3      	adds	r3, r2, r3
     b2e:	8d9d      	ldrh	r5, [r3, #44]	; 0x2c
     b30:	89a3      	ldrh	r3, [r4, #12]
     b32:	04ed      	lsls	r5, r5, #19
     b34:	0ced      	lsrs	r5, r5, #19
     b36:	0b5b      	lsrs	r3, r3, #13
     b38:	035b      	lsls	r3, r3, #13
     b3a:	432b      	orrs	r3, r5
     b3c:	81a3      	strh	r3, [r4, #12]
		((Sercom *)hw)->USART.BAUD.FRAC.FP   = _usarts[i].fractional;
     b3e:	3220      	adds	r2, #32
     b40:	180b      	adds	r3, r1, r0
     b42:	0099      	lsls	r1, r3, #2
     b44:	1852      	adds	r2, r2, r1
     b46:	7b93      	ldrb	r3, [r2, #14]
     b48:	2207      	movs	r2, #7
     b4a:	401a      	ands	r2, r3
     b4c:	89a3      	ldrh	r3, [r4, #12]
     b4e:	0352      	lsls	r2, r2, #13
     b50:	04db      	lsls	r3, r3, #19
     b52:	0cdb      	lsrs	r3, r3, #19
     b54:	4313      	orrs	r3, r2
     b56:	81a3      	strh	r3, [r4, #12]
	}

	hri_sercomusart_write_RXPL_reg(hw, _usarts[i].rxpl);
     b58:	4b08      	ldr	r3, [pc, #32]	; (b7c <_usart_init+0xf8>)
     b5a:	0019      	movs	r1, r3
     b5c:	3120      	adds	r1, #32
     b5e:	0082      	lsls	r2, r0, #2
     b60:	1816      	adds	r6, r2, r0
     b62:	00b5      	lsls	r5, r6, #2
     b64:	1949      	adds	r1, r1, r5
     b66:	7bc9      	ldrb	r1, [r1, #15]
}

static inline void hri_sercomusart_write_RXPL_reg(const void *const hw, hri_sercomusart_rxpl_reg_t data)
{
	SERCOM_CRITICAL_SECTION_ENTER();
	((Sercom *)hw)->USART.RXPL.reg = data;
     b68:	73a1      	strb	r1, [r4, #14]
	hri_sercomusart_write_DBGCTRL_reg(hw, _usarts[i].debug_ctrl);
     b6a:	195b      	adds	r3, r3, r5
     b6c:	3330      	adds	r3, #48	; 0x30
     b6e:	781a      	ldrb	r2, [r3, #0]
}

static inline void hri_sercomusart_write_DBGCTRL_reg(const void *const hw, hri_sercomusart_dbgctrl_reg_t data)
{
	SERCOM_CRITICAL_SECTION_ENTER();
	((Sercom *)hw)->USART.DBGCTRL.reg = data;
     b70:	2330      	movs	r3, #48	; 0x30
     b72:	54e2      	strb	r2, [r4, r3]

	return ERR_NONE;
}
     b74:	2000      	movs	r0, #0
     b76:	bd70      	pop	{r4, r5, r6, pc}
     b78:	00000a3d 	.word	0x00000a3d
     b7c:	00002110 	.word	0x00002110

00000b80 <_usart_sync_init>:
{
     b80:	b570      	push	{r4, r5, r6, lr}
     b82:	0005      	movs	r5, r0
     b84:	000c      	movs	r4, r1
	ASSERT(device);
     b86:	1e43      	subs	r3, r0, #1
     b88:	4198      	sbcs	r0, r3
     b8a:	b2c0      	uxtb	r0, r0
     b8c:	22b4      	movs	r2, #180	; 0xb4
     b8e:	4904      	ldr	r1, [pc, #16]	; (ba0 <_usart_sync_init+0x20>)
     b90:	4b04      	ldr	r3, [pc, #16]	; (ba4 <_usart_sync_init+0x24>)
     b92:	4798      	blx	r3
	device->hw = hw;
     b94:	602c      	str	r4, [r5, #0]
	return _usart_init(hw);
     b96:	0020      	movs	r0, r4
     b98:	4b03      	ldr	r3, [pc, #12]	; (ba8 <_usart_sync_init+0x28>)
     b9a:	4798      	blx	r3
}
     b9c:	bd70      	pop	{r4, r5, r6, pc}
     b9e:	46c0      	nop			; (mov r8, r8)
     ba0:	00002180 	.word	0x00002180
     ba4:	00000629 	.word	0x00000629
     ba8:	00000a85 	.word	0x00000a85

00000bac <_usart_sync_enable>:
	hri_sercomusart_set_CTRLA_ENABLE_bit(device->hw);
     bac:	6802      	ldr	r2, [r0, #0]
	((Sercom *)hw)->USART.CTRLA.reg |= SERCOM_USART_CTRLA_ENABLE;
     bae:	6813      	ldr	r3, [r2, #0]
     bb0:	2102      	movs	r1, #2
     bb2:	430b      	orrs	r3, r1
     bb4:	6013      	str	r3, [r2, #0]
	while (((Sercom *)hw)->USART.SYNCBUSY.reg & reg) {
     bb6:	69d3      	ldr	r3, [r2, #28]
     bb8:	079b      	lsls	r3, r3, #30
     bba:	d1fc      	bne.n	bb6 <_usart_sync_enable+0xa>
}
     bbc:	4770      	bx	lr

00000bbe <_usart_sync_write_byte>:
	hri_sercomusart_write_DATA_reg(device->hw, data);
     bbe:	6803      	ldr	r3, [r0, #0]
     bc0:	b289      	uxth	r1, r1
	((Sercom *)hw)->USART.DATA.reg = data;
     bc2:	8519      	strh	r1, [r3, #40]	; 0x28
}
     bc4:	4770      	bx	lr

00000bc6 <_usart_sync_read_byte>:
	return hri_sercomusart_read_DATA_reg(device->hw);
     bc6:	6803      	ldr	r3, [r0, #0]
	return ((Sercom *)hw)->USART.DATA.reg;
     bc8:	8d18      	ldrh	r0, [r3, #40]	; 0x28
     bca:	b2c0      	uxtb	r0, r0
}
     bcc:	4770      	bx	lr

00000bce <_usart_sync_is_ready_to_send>:
	return hri_sercomusart_get_interrupt_DRE_bit(device->hw);
     bce:	6803      	ldr	r3, [r0, #0]
	return (((Sercom *)hw)->USART.INTFLAG.reg & SERCOM_USART_INTFLAG_DRE) >> SERCOM_USART_INTFLAG_DRE_Pos;
     bd0:	7e18      	ldrb	r0, [r3, #24]
     bd2:	2301      	movs	r3, #1
     bd4:	4018      	ands	r0, r3
}
     bd6:	4770      	bx	lr

00000bd8 <_usart_sync_is_transmit_done>:
	return hri_sercomusart_get_interrupt_TXC_bit(device->hw);
     bd8:	6803      	ldr	r3, [r0, #0]
	return (((Sercom *)hw)->USART.INTFLAG.reg & SERCOM_USART_INTFLAG_TXC) >> SERCOM_USART_INTFLAG_TXC_Pos;
     bda:	7e1b      	ldrb	r3, [r3, #24]
     bdc:	085b      	lsrs	r3, r3, #1
     bde:	2001      	movs	r0, #1
     be0:	4018      	ands	r0, r3
}
     be2:	4770      	bx	lr

00000be4 <_usart_sync_is_byte_received>:
	return hri_sercomusart_get_interrupt_RXC_bit(device->hw);
     be4:	6803      	ldr	r3, [r0, #0]
	return (((Sercom *)hw)->USART.INTFLAG.reg & SERCOM_USART_INTFLAG_RXC) >> SERCOM_USART_INTFLAG_RXC_Pos;
     be6:	7e1b      	ldrb	r3, [r3, #24]
     be8:	089b      	lsrs	r3, r3, #2
     bea:	2001      	movs	r0, #1
     bec:	4018      	ands	r0, r3
}
     bee:	4770      	bx	lr

00000bf0 <get_flash_page_size>:
* params:
* return:
################################################
*/
int get_flash_page_size()
{
     bf0:	b510      	push	{r4, lr}
    #if BOOTLOADER_EVENT_PRINT_ENABLE
        printf("DRV: Flash Page size ask!\n\r");
    #endif
     //ASF 4 api for get the flash page size
    return flash_get_page_size(&FLASH_0);
     bf2:	4802      	ldr	r0, [pc, #8]	; (bfc <get_flash_page_size+0xc>)
     bf4:	4b02      	ldr	r3, [pc, #8]	; (c00 <get_flash_page_size+0x10>)
     bf6:	4798      	blx	r3
    
    
}
     bf8:	bd10      	pop	{r4, pc}
     bfa:	46c0      	nop			; (mov r8, r8)
     bfc:	200002f0 	.word	0x200002f0
     c00:	000003e1 	.word	0x000003e1

00000c04 <decode_can_data>:
{
     c04:	b510      	push	{r4, lr}
	switch(can.can_id){
     c06:	4b0f      	ldr	r3, [pc, #60]	; (c44 <decode_can_data+0x40>)
     c08:	681b      	ldr	r3, [r3, #0]
     c0a:	2b01      	cmp	r3, #1
     c0c:	d003      	beq.n	c16 <decode_can_data+0x12>
		app.state = SERIAL_CAN_READ; // default will be read can commands
     c0e:	2202      	movs	r2, #2
     c10:	4b0d      	ldr	r3, [pc, #52]	; (c48 <decode_can_data+0x44>)
     c12:	701a      	strb	r2, [r3, #0]
}
     c14:	bd10      	pop	{r4, pc}
		can.can_id = CAN_START_FLASH_WRITE;
     c16:	4c0b      	ldr	r4, [pc, #44]	; (c44 <decode_can_data+0x40>)
     c18:	6023      	str	r3, [r4, #0]
		can.can_data[0] = (uint8_t)get_flash_page_size();
     c1a:	4b0c      	ldr	r3, [pc, #48]	; (c4c <decode_can_data+0x48>)
     c1c:	4798      	blx	r3
     c1e:	b2c0      	uxtb	r0, r0
     c20:	7120      	strb	r0, [r4, #4]
		page_size = can.can_data[0]; // update the page size
     c22:	4b0b      	ldr	r3, [pc, #44]	; (c50 <decode_can_data+0x4c>)
     c24:	6018      	str	r0, [r3, #0]
		flash_write_info.temp_32bit_data = flash_write_info.curr_flash_write_addr;
     c26:	4a0b      	ldr	r2, [pc, #44]	; (c54 <decode_can_data+0x50>)
     c28:	6813      	ldr	r3, [r2, #0]
     c2a:	6293      	str	r3, [r2, #40]	; 0x28
		can.can_data[1] = (uint8_t)flash_write_info.temp_32bit_data;
     c2c:	7163      	strb	r3, [r4, #5]
		can.can_data[2] = (uint8_t)(flash_write_info.temp_32bit_data >> 8);
     c2e:	0a1b      	lsrs	r3, r3, #8
     c30:	71a3      	strb	r3, [r4, #6]
		can.len = 3;
     c32:	2303      	movs	r3, #3
     c34:	6463      	str	r3, [r4, #68]	; 0x44
		can_write(&can);
     c36:	0020      	movs	r0, r4
     c38:	4b07      	ldr	r3, [pc, #28]	; (c58 <decode_can_data+0x54>)
     c3a:	4798      	blx	r3
		app.state = SERIAL_CAN_READ;
     c3c:	2202      	movs	r2, #2
     c3e:	4b02      	ldr	r3, [pc, #8]	; (c48 <decode_can_data+0x44>)
     c40:	701a      	strb	r2, [r3, #0]
        break;
     c42:	e7e7      	b.n	c14 <decode_can_data+0x10>
     c44:	20000430 	.word	0x20000430
     c48:	20000484 	.word	0x20000484
     c4c:	00000bf1 	.word	0x00000bf1
     c50:	20000014 	.word	0x20000014
     c54:	20000404 	.word	0x20000404
     c58:	00000cfd 	.word	0x00000cfd

00000c5c <main>:
{
     c5c:	b510      	push	{r4, lr}
	atmel_start_init();
     c5e:	4b19      	ldr	r3, [pc, #100]	; (cc4 <main+0x68>)
     c60:	4798      	blx	r3
    flash_write_info.curr_flash_write_addr = APP_START_BASE_ADDRESS;
     c62:	22e0      	movs	r2, #224	; 0xe0
     c64:	0212      	lsls	r2, r2, #8
     c66:	4b18      	ldr	r3, [pc, #96]	; (cc8 <main+0x6c>)
     c68:	601a      	str	r2, [r3, #0]
    serial_read_data.uart_frame_received = 0;
     c6a:	2200      	movs	r2, #0
     c6c:	4b17      	ldr	r3, [pc, #92]	; (ccc <main+0x70>)
     c6e:	721a      	strb	r2, [r3, #8]
    can.can_id = -1;
     c70:	3a01      	subs	r2, #1
     c72:	4b17      	ldr	r3, [pc, #92]	; (cd0 <main+0x74>)
     c74:	601a      	str	r2, [r3, #0]
	app.state = INIT;    
     c76:	3202      	adds	r2, #2
     c78:	4b16      	ldr	r3, [pc, #88]	; (cd4 <main+0x78>)
     c7a:	701a      	strb	r2, [r3, #0]
     c7c:	e005      	b.n	c8a <main+0x2e>
				can_init(&can);
     c7e:	4814      	ldr	r0, [pc, #80]	; (cd0 <main+0x74>)
     c80:	4b15      	ldr	r3, [pc, #84]	; (cd8 <main+0x7c>)
     c82:	4798      	blx	r3
				app.state = SERIAL_CAN_READ;
     c84:	2202      	movs	r2, #2
     c86:	4b13      	ldr	r3, [pc, #76]	; (cd4 <main+0x78>)
     c88:	701a      	strb	r2, [r3, #0]
		switch(app.state){
     c8a:	4b12      	ldr	r3, [pc, #72]	; (cd4 <main+0x78>)
     c8c:	781b      	ldrb	r3, [r3, #0]
     c8e:	2b02      	cmp	r3, #2
     c90:	d007      	beq.n	ca2 <main+0x46>
     c92:	2b03      	cmp	r3, #3
     c94:	d012      	beq.n	cbc <main+0x60>
     c96:	2b01      	cmp	r3, #1
     c98:	d0f1      	beq.n	c7e <main+0x22>
				app.state = SERIAL_CAN_READ; // Always listen to programmer
     c9a:	2202      	movs	r2, #2
     c9c:	4b0d      	ldr	r3, [pc, #52]	; (cd4 <main+0x78>)
     c9e:	701a      	strb	r2, [r3, #0]
			break;
     ca0:	e7f3      	b.n	c8a <main+0x2e>
				if(can_read(&can)){
     ca2:	480b      	ldr	r0, [pc, #44]	; (cd0 <main+0x74>)
     ca4:	4b0d      	ldr	r3, [pc, #52]	; (cdc <main+0x80>)
     ca6:	4798      	blx	r3
     ca8:	2800      	cmp	r0, #0
     caa:	d003      	beq.n	cb4 <main+0x58>
					app.state = DECODE_CAN_DATA;
     cac:	2203      	movs	r2, #3
     cae:	4b09      	ldr	r3, [pc, #36]	; (cd4 <main+0x78>)
     cb0:	701a      	strb	r2, [r3, #0]
     cb2:	e7ea      	b.n	c8a <main+0x2e>
					app.state = SERIAL_CAN_READ;
     cb4:	2202      	movs	r2, #2
     cb6:	4b07      	ldr	r3, [pc, #28]	; (cd4 <main+0x78>)
     cb8:	701a      	strb	r2, [r3, #0]
     cba:	e7e6      	b.n	c8a <main+0x2e>
				decode_can_data();
     cbc:	4b08      	ldr	r3, [pc, #32]	; (ce0 <main+0x84>)
     cbe:	4798      	blx	r3
			break;
     cc0:	e7e3      	b.n	c8a <main+0x2e>
     cc2:	46c0      	nop			; (mov r8, r8)
     cc4:	0000011d 	.word	0x0000011d
     cc8:	20000404 	.word	0x20000404
     ccc:	200003c0 	.word	0x200003c0
     cd0:	20000430 	.word	0x20000430
     cd4:	20000484 	.word	0x20000484
     cd8:	00000ce5 	.word	0x00000ce5
     cdc:	00000eb5 	.word	0x00000eb5
     ce0:	00000c05 	.word	0x00000c05

00000ce4 <can_init>:
uint8_t rx_buffer[MAX_INCOMMING_STRING_LENGTH] = {0};
uint8_t rx_buff_index = 0;


void can_init(const can_context_type * can)
{
     ce4:	b510      	push	{r4, lr}
       usart_sync_get_io_descriptor(&TARGET_IO, &serial_io);	// Get the descriptor
     ce6:	4902      	ldr	r1, [pc, #8]	; (cf0 <can_init+0xc>)
     ce8:	4802      	ldr	r0, [pc, #8]	; (cf4 <can_init+0x10>)
     cea:	4b03      	ldr	r3, [pc, #12]	; (cf8 <can_init+0x14>)
     cec:	4798      	blx	r3
}
     cee:	bd10      	pop	{r4, pc}
     cf0:	20000508 	.word	0x20000508
     cf4:	2000030c 	.word	0x2000030c
     cf8:	000005d1 	.word	0x000005d1

00000cfc <can_write>:


void can_write(can_context_type * can)
{
     cfc:	b5f8      	push	{r3, r4, r5, r6, r7, lr}
     cfe:	0005      	movs	r5, r0
		--------------------------------------
	*/
	#else 	
	
        // Serial String Format tiiildddd..dd\n | max data is the byte
        memset(uart_tx_frame_buff , 0 , 23);
     d00:	4c63      	ldr	r4, [pc, #396]	; (e90 <can_write+0x194>)
     d02:	2217      	movs	r2, #23
     d04:	2100      	movs	r1, #0
     d06:	0020      	movs	r0, r4
     d08:	4f62      	ldr	r7, [pc, #392]	; (e94 <can_write+0x198>)
     d0a:	47b8      	blx	r7
        memset(temp_buff , 0 , 3);
     d0c:	0026      	movs	r6, r4
     d0e:	3618      	adds	r6, #24
     d10:	2203      	movs	r2, #3
     d12:	2100      	movs	r1, #0
     d14:	0030      	movs	r0, r6
     d16:	47b8      	blx	r7
        memset(temp_copy_buffer , 0 , 3);
     d18:	0020      	movs	r0, r4
     d1a:	301c      	adds	r0, #28
     d1c:	2203      	movs	r2, #3
     d1e:	2100      	movs	r1, #0
     d20:	47b8      	blx	r7
        memset(temp_buff_data , 0 , 2);
     d22:	2300      	movs	r3, #0
     d24:	8423      	strh	r3, [r4, #32]
	
        /*First element of the string is 't' */
        uart_tx_frame_buff[0] = 't';							
     d26:	3374      	adds	r3, #116	; 0x74
     d28:	7023      	strb	r3, [r4, #0]
        
        /* CAN ID convert to string and concat to uart_tx_buffer */
	//itoa (can->can_id,temp_buff,16);
        sprintf(temp_buff, "%x", can->can_id);
     d2a:	682a      	ldr	r2, [r5, #0]
     d2c:	495a      	ldr	r1, [pc, #360]	; (e98 <can_write+0x19c>)
     d2e:	0030      	movs	r0, r6
     d30:	4b5a      	ldr	r3, [pc, #360]	; (e9c <can_write+0x1a0>)
     d32:	4798      	blx	r3

        // zero padding in MSb
        switch(strlen(temp_buff)){
     d34:	0030      	movs	r0, r6
     d36:	4b5a      	ldr	r3, [pc, #360]	; (ea0 <can_write+0x1a4>)
     d38:	4798      	blx	r3
     d3a:	2802      	cmp	r0, #2
     d3c:	d00c      	beq.n	d58 <can_write+0x5c>
     d3e:	2803      	cmp	r0, #3
     d40:	d012      	beq.n	d68 <can_write+0x6c>
     d42:	2801      	cmp	r0, #1
     d44:	d001      	beq.n	d4a <can_write+0x4e>
{
     d46:	2400      	movs	r4, #0
     d48:	e022      	b.n	d90 <can_write+0x94>
		case 1: //if len is 1 the padding 0 to first 2 place
			temp_copy_buffer[0] = 0;
     d4a:	4b51      	ldr	r3, [pc, #324]	; (e90 <can_write+0x194>)
     d4c:	2200      	movs	r2, #0
     d4e:	771a      	strb	r2, [r3, #28]
			temp_copy_buffer[1] = 0;
     d50:	775a      	strb	r2, [r3, #29]
			temp_copy_buffer[2] = temp_buff[0];
     d52:	7e1a      	ldrb	r2, [r3, #24]
     d54:	779a      	strb	r2, [r3, #30]
		break;
     d56:	e7f6      	b.n	d46 <can_write+0x4a>
            
		case 2: //if len is 1 the padding 0 to first 2 place
			temp_copy_buffer[0] = 0;
     d58:	4b4d      	ldr	r3, [pc, #308]	; (e90 <can_write+0x194>)
     d5a:	2200      	movs	r2, #0
     d5c:	771a      	strb	r2, [r3, #28]
			temp_copy_buffer[1] = temp_buff[0];
     d5e:	7e1a      	ldrb	r2, [r3, #24]
     d60:	775a      	strb	r2, [r3, #29]
			temp_copy_buffer[2] = temp_buff[1];
     d62:	7e5a      	ldrb	r2, [r3, #25]
     d64:	779a      	strb	r2, [r3, #30]
		break;
     d66:	e7ee      	b.n	d46 <can_write+0x4a>
            
		case 3: //if len is 1 the padding 0 to first 2 place
			temp_copy_buffer[0] = temp_buff[0];
     d68:	4b49      	ldr	r3, [pc, #292]	; (e90 <can_write+0x194>)
     d6a:	7e1a      	ldrb	r2, [r3, #24]
     d6c:	771a      	strb	r2, [r3, #28]
			temp_copy_buffer[1] = temp_buff[1];
     d6e:	7e5a      	ldrb	r2, [r3, #25]
     d70:	775a      	strb	r2, [r3, #29]
			temp_copy_buffer[2] = temp_buff[2];
     d72:	7e9a      	ldrb	r2, [r3, #26]
     d74:	779a      	strb	r2, [r3, #30]
		break;
     d76:	e7e6      	b.n	d46 <can_write+0x4a>
		break;
	}
	int i = 0;
	for(i=0; i < 3 ; i++){		
		if((temp_copy_buffer[i] >= 'a') && (temp_copy_buffer[i] <= 'f'))
			temp_copy_buffer[i] = toupper(temp_copy_buffer[i]);
     d78:	4b4a      	ldr	r3, [pc, #296]	; (ea4 <can_write+0x1a8>)
     d7a:	4798      	blx	r3
     d7c:	1980      	adds	r0, r0, r6
     d7e:	7842      	ldrb	r2, [r0, #1]
     d80:	2303      	movs	r3, #3
     d82:	4013      	ands	r3, r2
     d84:	2b02      	cmp	r3, #2
     d86:	d014      	beq.n	db2 <can_write+0xb6>
     d88:	4b41      	ldr	r3, [pc, #260]	; (e90 <can_write+0x194>)
     d8a:	191b      	adds	r3, r3, r4
     d8c:	771e      	strb	r6, [r3, #28]
	for(i=0; i < 3 ; i++){		
     d8e:	3401      	adds	r4, #1
     d90:	2c02      	cmp	r4, #2
     d92:	dc10      	bgt.n	db6 <can_write+0xba>
		if((temp_copy_buffer[i] >= 'a') && (temp_copy_buffer[i] <= 'f'))
     d94:	4b3e      	ldr	r3, [pc, #248]	; (e90 <can_write+0x194>)
     d96:	191b      	adds	r3, r3, r4
     d98:	7f1e      	ldrb	r6, [r3, #28]
     d9a:	0033      	movs	r3, r6
     d9c:	3b61      	subs	r3, #97	; 0x61
     d9e:	b2db      	uxtb	r3, r3
     da0:	2b05      	cmp	r3, #5
     da2:	d9e9      	bls.n	d78 <can_write+0x7c>
		else if(temp_copy_buffer[i] == 0)
     da4:	2e00      	cmp	r6, #0
     da6:	d1f2      	bne.n	d8e <can_write+0x92>
			temp_copy_buffer[i] = 48; // ascii of 0
     da8:	4b39      	ldr	r3, [pc, #228]	; (e90 <can_write+0x194>)
     daa:	191b      	adds	r3, r3, r4
     dac:	2230      	movs	r2, #48	; 0x30
     dae:	771a      	strb	r2, [r3, #28]
     db0:	e7ed      	b.n	d8e <can_write+0x92>
			temp_copy_buffer[i] = toupper(temp_copy_buffer[i]);
     db2:	3e20      	subs	r6, #32
     db4:	e7e8      	b.n	d88 <can_write+0x8c>
        
	#if OUTGOING_CAN_DRIVER_PRINT
	printf("[CAN DRV] WR Seg ID [%d] :%s:\n", can->can_id, temp_copy_buffer);
	#endif
	       				
	strcat(uart_tx_frame_buff , temp_copy_buffer); /* concat with the uart_tx_frame_buffer*/	
     db6:	4c36      	ldr	r4, [pc, #216]	; (e90 <can_write+0x194>)
     db8:	0021      	movs	r1, r4
     dba:	311c      	adds	r1, #28
     dbc:	0020      	movs	r0, r4
     dbe:	4b3a      	ldr	r3, [pc, #232]	; (ea8 <can_write+0x1ac>)
     dc0:	4798      	blx	r3
	/*data len converted to sting and transmit */
	uart_tx_frame_buff[4] = (uint8_t)(can->len+48); /* Length cann't be greater than 4 so put it as same posion is 4th byte*/
     dc2:	6c6b      	ldr	r3, [r5, #68]	; 0x44
     dc4:	3330      	adds	r3, #48	; 0x30
     dc6:	7123      	strb	r3, [r4, #4]
	#if OUTGOING_CAN_DRIVER_PRINT
	printf("[CAN DRV] WR Seg data: ",uart_tx_frame_buff[4]);
	#endif		
	/* 8 byte data conversion and concat to uart_tx_frame_buff */
        i= 0;
	for(i=0 ; i < can->len; i++){
     dc8:	2400      	movs	r4, #0
     dca:	e01e      	b.n	e0a <can_write+0x10e>
			temp_buff_data[1] = temp;
		}
				
		/*1st digit conversion of byte */
		if((temp_buff_data[0] >= 'a') && (temp_buff_data[0] <= 'f'))
			temp_buff_data[0] = toupper(temp_buff_data[0]);
     dcc:	4b35      	ldr	r3, [pc, #212]	; (ea4 <can_write+0x1a8>)
     dce:	4798      	blx	r3
     dd0:	1980      	adds	r0, r0, r6
     dd2:	7842      	ldrb	r2, [r0, #1]
     dd4:	2303      	movs	r3, #3
     dd6:	4013      	ands	r3, r2
     dd8:	2b02      	cmp	r3, #2
     dda:	d003      	beq.n	de4 <can_write+0xe8>
     ddc:	2320      	movs	r3, #32
     dde:	4a2c      	ldr	r2, [pc, #176]	; (e90 <can_write+0x194>)
     de0:	54d6      	strb	r6, [r2, r3]
     de2:	e036      	b.n	e52 <can_write+0x156>
     de4:	3e20      	subs	r6, #32
     de6:	e7f9      	b.n	ddc <can_write+0xe0>
			temp_buff_data[0] = 48;
		else{}
					
		/*2nd digit conversion of byte */
		if((temp_buff_data[1] >= 'a') && (temp_buff_data[1] <= 'f'))
			temp_buff_data[1] = toupper(temp_buff_data[1]);
     de8:	4b2e      	ldr	r3, [pc, #184]	; (ea4 <can_write+0x1a8>)
     dea:	4798      	blx	r3
     dec:	1980      	adds	r0, r0, r6
     dee:	7842      	ldrb	r2, [r0, #1]
     df0:	2303      	movs	r3, #3
     df2:	4013      	ands	r3, r2
     df4:	2b02      	cmp	r3, #2
     df6:	d03b      	beq.n	e70 <can_write+0x174>
     df8:	4b25      	ldr	r3, [pc, #148]	; (e90 <can_write+0x194>)
     dfa:	3320      	adds	r3, #32
     dfc:	705e      	strb	r6, [r3, #1]
		#if OUTGOING_CAN_DRIVER_PRINT
		printf("-[%d]:%s:-",can->can_data[i], temp_buff_data);
		#endif	
		/* concatenate to the main sting according to LSB to MSB
		one by one after every byte convention in loop*/
		strcat(uart_tx_frame_buff , temp_buff_data);						 
     dfe:	4824      	ldr	r0, [pc, #144]	; (e90 <can_write+0x194>)
     e00:	0001      	movs	r1, r0
     e02:	3120      	adds	r1, #32
     e04:	4b28      	ldr	r3, [pc, #160]	; (ea8 <can_write+0x1ac>)
     e06:	4798      	blx	r3
	for(i=0 ; i < can->len; i++){
     e08:	3401      	adds	r4, #1
     e0a:	6c6b      	ldr	r3, [r5, #68]	; 0x44
     e0c:	42a3      	cmp	r3, r4
     e0e:	d931      	bls.n	e74 <can_write+0x178>
		sprintf(temp_buff_data , "%x" , can->can_data[i]);
     e10:	192e      	adds	r6, r5, r4
     e12:	7932      	ldrb	r2, [r6, #4]
     e14:	4920      	ldr	r1, [pc, #128]	; (e98 <can_write+0x19c>)
     e16:	481e      	ldr	r0, [pc, #120]	; (e90 <can_write+0x194>)
     e18:	3020      	adds	r0, #32
     e1a:	4b20      	ldr	r3, [pc, #128]	; (e9c <can_write+0x1a0>)
     e1c:	4798      	blx	r3
		if(can->can_data[i]<16){
     e1e:	7933      	ldrb	r3, [r6, #4]
     e20:	2b0f      	cmp	r3, #15
     e22:	d808      	bhi.n	e36 <can_write+0x13a>
			uint8_t temp = temp_buff_data[0];
     e24:	4b1a      	ldr	r3, [pc, #104]	; (e90 <can_write+0x194>)
     e26:	2220      	movs	r2, #32
     e28:	5c99      	ldrb	r1, [r3, r2]
			temp_buff_data[0] = temp_buff_data[1];
     e2a:	0018      	movs	r0, r3
     e2c:	3020      	adds	r0, #32
     e2e:	7840      	ldrb	r0, [r0, #1]
     e30:	5498      	strb	r0, [r3, r2]
			temp_buff_data[1] = temp;
     e32:	3320      	adds	r3, #32
     e34:	7059      	strb	r1, [r3, #1]
		if((temp_buff_data[0] >= 'a') && (temp_buff_data[0] <= 'f'))
     e36:	2320      	movs	r3, #32
     e38:	4a15      	ldr	r2, [pc, #84]	; (e90 <can_write+0x194>)
     e3a:	5cd6      	ldrb	r6, [r2, r3]
     e3c:	0033      	movs	r3, r6
     e3e:	3b61      	subs	r3, #97	; 0x61
     e40:	b2db      	uxtb	r3, r3
     e42:	2b05      	cmp	r3, #5
     e44:	d9c2      	bls.n	dcc <can_write+0xd0>
		else if(temp_buff_data[0] == 0)
     e46:	2e00      	cmp	r6, #0
     e48:	d103      	bne.n	e52 <can_write+0x156>
			temp_buff_data[0] = 48;
     e4a:	2130      	movs	r1, #48	; 0x30
     e4c:	2320      	movs	r3, #32
     e4e:	4a10      	ldr	r2, [pc, #64]	; (e90 <can_write+0x194>)
     e50:	54d1      	strb	r1, [r2, r3]
		if((temp_buff_data[1] >= 'a') && (temp_buff_data[1] <= 'f'))
     e52:	4b0f      	ldr	r3, [pc, #60]	; (e90 <can_write+0x194>)
     e54:	3320      	adds	r3, #32
     e56:	785e      	ldrb	r6, [r3, #1]
     e58:	0033      	movs	r3, r6
     e5a:	3b61      	subs	r3, #97	; 0x61
     e5c:	b2db      	uxtb	r3, r3
     e5e:	2b05      	cmp	r3, #5
     e60:	d9c2      	bls.n	de8 <can_write+0xec>
		else if(temp_buff_data[1] == 0)
     e62:	2e00      	cmp	r6, #0
     e64:	d1cb      	bne.n	dfe <can_write+0x102>
			temp_buff_data[1] = 48;
     e66:	2230      	movs	r2, #48	; 0x30
     e68:	4b09      	ldr	r3, [pc, #36]	; (e90 <can_write+0x194>)
     e6a:	3320      	adds	r3, #32
     e6c:	705a      	strb	r2, [r3, #1]
     e6e:	e7c6      	b.n	dfe <can_write+0x102>
			temp_buff_data[1] = toupper(temp_buff_data[1]);
     e70:	3e20      	subs	r6, #32
     e72:	e7c1      	b.n	df8 <can_write+0xfc>
        printf("\n");
        #endif 
	       
	//io_write(lv_io , temp_buff_data, 2);
	/* a \r should be padded after the bytes 5+ (i*2) */
	uart_tx_frame_buff[5+(i*2)] = '\n';											
     e74:	0063      	lsls	r3, r4, #1
     e76:	3305      	adds	r3, #5
     e78:	4905      	ldr	r1, [pc, #20]	; (e90 <can_write+0x194>)
     e7a:	220a      	movs	r2, #10
     e7c:	54ca      	strb	r2, [r1, r3]
	int serial_data_len = (6+(i*2));
     e7e:	3403      	adds	r4, #3
     e80:	0064      	lsls	r4, r4, #1

        #if OUTGOING_CAN_DRIVER_PRINT
                printf("[CAN DRV] WR Write :%s:\n",uart_tx_frame_buff);
        #endif

	io_write(serial_io , uart_tx_frame_buff, serial_data_len); // Calculate based on the data len
     e82:	b2a2      	uxth	r2, r4
     e84:	4b09      	ldr	r3, [pc, #36]	; (eac <can_write+0x1b0>)
     e86:	6818      	ldr	r0, [r3, #0]
     e88:	4b09      	ldr	r3, [pc, #36]	; (eb0 <can_write+0x1b4>)
     e8a:	4798      	blx	r3
	
	#endif                  
}
     e8c:	bdf8      	pop	{r3, r4, r5, r6, r7, pc}
     e8e:	46c0      	nop			; (mov r8, r8)
     e90:	20000238 	.word	0x20000238
     e94:	000011cb 	.word	0x000011cb
     e98:	0000219c 	.word	0x0000219c
     e9c:	00001345 	.word	0x00001345
     ea0:	000013a3 	.word	0x000013a3
     ea4:	00001179 	.word	0x00001179
     ea8:	00001389 	.word	0x00001389
     eac:	20000508 	.word	0x20000508
     eb0:	00000409 	.word	0x00000409

00000eb4 <can_read>:

int can_read(can_context_type * can)
{
     eb4:	b5f0      	push	{r4, r5, r6, r7, lr}
     eb6:	46c6      	mov	lr, r8
     eb8:	b500      	push	{lr}
     eba:	0006      	movs	r6, r0
		--------------------------------------
	*/
	#else 
	
	/* Read characters */
	if(usart_sync_is_rx_not_empty(&TARGET_IO)){ //
     ebc:	484a      	ldr	r0, [pc, #296]	; (fe8 <can_read+0x134>)
     ebe:	4b4b      	ldr	r3, [pc, #300]	; (fec <can_read+0x138>)
     ec0:	4798      	blx	r3
     ec2:	2800      	cmp	r0, #0
     ec4:	d108      	bne.n	ed8 <can_read+0x24>
				rx_buffer[rx_buff_index++] = temp_char_buff[0]; // Fill the buffer character by character
		}	
	}
	
	/*  One complete usb frame is received and process the frame */
	if(frame_received){
     ec6:	2326      	movs	r3, #38	; 0x26
     ec8:	4a49      	ldr	r2, [pc, #292]	; (ff0 <can_read+0x13c>)
     eca:	5cd3      	ldrb	r3, [r2, r3]
     ecc:	2b00      	cmp	r3, #0
     ece:	d127      	bne.n	f20 <can_read+0x6c>
		
		
	}
	#endif
	
	return 0;       
     ed0:	2000      	movs	r0, #0
     ed2:	bc04      	pop	{r2}
     ed4:	4690      	mov	r8, r2
     ed6:	bdf0      	pop	{r4, r5, r6, r7, pc}
		io_read(serial_io, temp_char_buff , 1);
     ed8:	4c45      	ldr	r4, [pc, #276]	; (ff0 <can_read+0x13c>)
     eda:	0021      	movs	r1, r4
     edc:	3124      	adds	r1, #36	; 0x24
     ede:	4b45      	ldr	r3, [pc, #276]	; (ff4 <can_read+0x140>)
     ee0:	6818      	ldr	r0, [r3, #0]
     ee2:	2201      	movs	r2, #1
     ee4:	4b44      	ldr	r3, [pc, #272]	; (ff8 <can_read+0x144>)
     ee6:	4798      	blx	r3
		if(temp_char_buff[0] == 't'){	// If the character is t reset all the values and start sampling the frame
     ee8:	2324      	movs	r3, #36	; 0x24
     eea:	5ce3      	ldrb	r3, [r4, r3]
     eec:	2b74      	cmp	r3, #116	; 0x74
     eee:	d00d      	beq.n	f0c <can_read+0x58>
		} else if((temp_char_buff[0] == '\n')) {	// If \r received then stop sampling character and start process the frame.
     ef0:	2b0a      	cmp	r3, #10
     ef2:	d010      	beq.n	f16 <can_read+0x62>
			if(rx_buff_index < MAX_INCOMMING_STRING_LENGTH)
     ef4:	2225      	movs	r2, #37	; 0x25
     ef6:	493e      	ldr	r1, [pc, #248]	; (ff0 <can_read+0x13c>)
     ef8:	5c8a      	ldrb	r2, [r1, r2]
     efa:	2a63      	cmp	r2, #99	; 0x63
     efc:	d8e3      	bhi.n	ec6 <can_read+0x12>
				rx_buffer[rx_buff_index++] = temp_char_buff[0]; // Fill the buffer character by character
     efe:	1c54      	adds	r4, r2, #1
     f00:	2025      	movs	r0, #37	; 0x25
     f02:	540c      	strb	r4, [r1, r0]
     f04:	188a      	adds	r2, r1, r2
     f06:	2128      	movs	r1, #40	; 0x28
     f08:	5453      	strb	r3, [r2, r1]
     f0a:	e7dc      	b.n	ec6 <can_read+0x12>
			rx_buff_index = 0; // Start the string	
     f0c:	2100      	movs	r1, #0
     f0e:	3b4f      	subs	r3, #79	; 0x4f
     f10:	4a37      	ldr	r2, [pc, #220]	; (ff0 <can_read+0x13c>)
     f12:	54d1      	strb	r1, [r2, r3]
     f14:	e7d7      	b.n	ec6 <can_read+0x12>
			frame_received = 1;
     f16:	2101      	movs	r1, #1
     f18:	331c      	adds	r3, #28
     f1a:	4a35      	ldr	r2, [pc, #212]	; (ff0 <can_read+0x13c>)
     f1c:	54d1      	strb	r1, [r2, r3]
     f1e:	e7d2      	b.n	ec6 <can_read+0x12>
		frame_received = 0;
     f20:	2700      	movs	r7, #0
     f22:	2326      	movs	r3, #38	; 0x26
     f24:	54d7      	strb	r7, [r2, r3]
		memset(serial_can_data ,0 ,8);
     f26:	4c35      	ldr	r4, [pc, #212]	; (ffc <can_read+0x148>)
     f28:	0020      	movs	r0, r4
     f2a:	300c      	adds	r0, #12
     f2c:	2208      	movs	r2, #8
     f2e:	2100      	movs	r1, #0
     f30:	4d33      	ldr	r5, [pc, #204]	; (1000 <can_read+0x14c>)
     f32:	47a8      	blx	r5
		memset(serial_recv_can_id_temp ,0 ,3);
     f34:	0020      	movs	r0, r4
     f36:	3014      	adds	r0, #20
     f38:	2203      	movs	r2, #3
     f3a:	2100      	movs	r1, #0
     f3c:	47a8      	blx	r5
		memset(serial_recv_can_len ,0 ,1);
     f3e:	7627      	strb	r7, [r4, #24]
		memset(can_tx_data ,0 ,8);
     f40:	0020      	movs	r0, r4
     f42:	301c      	adds	r0, #28
     f44:	2208      	movs	r2, #8
     f46:	2100      	movs	r1, #0
     f48:	47a8      	blx	r5
		for(i = 0 ; i<3 ; i++){
     f4a:	2300      	movs	r3, #0
     f4c:	e007      	b.n	f5e <can_read+0xaa>
			serial_recv_can_id_temp[i] = rx_buffer[i];
     f4e:	4a28      	ldr	r2, [pc, #160]	; (ff0 <can_read+0x13c>)
     f50:	18d2      	adds	r2, r2, r3
     f52:	2128      	movs	r1, #40	; 0x28
     f54:	5c51      	ldrb	r1, [r2, r1]
     f56:	4a29      	ldr	r2, [pc, #164]	; (ffc <can_read+0x148>)
     f58:	18d2      	adds	r2, r2, r3
     f5a:	7511      	strb	r1, [r2, #20]
		for(i = 0 ; i<3 ; i++){
     f5c:	3301      	adds	r3, #1
     f5e:	2b02      	cmp	r3, #2
     f60:	ddf5      	ble.n	f4e <can_read+0x9a>
		serial_can_tx_id = hexadecimalToDecimal(serial_recv_can_id_temp);
     f62:	4c26      	ldr	r4, [pc, #152]	; (ffc <can_read+0x148>)
     f64:	0020      	movs	r0, r4
     f66:	3014      	adds	r0, #20
     f68:	4d26      	ldr	r5, [pc, #152]	; (1004 <can_read+0x150>)
     f6a:	47a8      	blx	r5
     f6c:	6260      	str	r0, [r4, #36]	; 0x24
		can->can_id = serial_can_tx_id;
     f6e:	6030      	str	r0, [r6, #0]
		serial_recv_can_len[0] = rx_buffer[3];
     f70:	4b1f      	ldr	r3, [pc, #124]	; (ff0 <can_read+0x13c>)
     f72:	3328      	adds	r3, #40	; 0x28
     f74:	78db      	ldrb	r3, [r3, #3]
     f76:	7623      	strb	r3, [r4, #24]
		serial_can_tx_len = hexadecimalToDecimal(serial_recv_can_len);
     f78:	0020      	movs	r0, r4
     f7a:	3018      	adds	r0, #24
     f7c:	47a8      	blx	r5
     f7e:	b2c0      	uxtb	r0, r0
     f80:	2328      	movs	r3, #40	; 0x28
     f82:	54e0      	strb	r0, [r4, r3]
		can->len = serial_can_tx_len;
     f84:	6470      	str	r0, [r6, #68]	; 0x44
		int index = 0;
     f86:	2700      	movs	r7, #0
		for(i = 4 ; (i < (4 + (serial_can_tx_len*2)) ) ; i+=2){ // One byte means 2 character in serial
     f88:	2504      	movs	r5, #4
     f8a:	e013      	b.n	fb4 <can_read+0x100>
			can_tx_data[0] = rx_buffer[i];
     f8c:	4b18      	ldr	r3, [pc, #96]	; (ff0 <can_read+0x13c>)
     f8e:	2228      	movs	r2, #40	; 0x28
     f90:	1959      	adds	r1, r3, r5
     f92:	5c89      	ldrb	r1, [r1, r2]
     f94:	4c19      	ldr	r4, [pc, #100]	; (ffc <can_read+0x148>)
     f96:	7721      	strb	r1, [r4, #28]
			can_tx_data[1] = rx_buffer[i+1];
     f98:	1c69      	adds	r1, r5, #1
     f9a:	185b      	adds	r3, r3, r1
     f9c:	5c9b      	ldrb	r3, [r3, r2]
     f9e:	7763      	strb	r3, [r4, #29]
			serial_can_data[index++] = hexadecimalToDecimal(can_tx_data);
     fa0:	1c7b      	adds	r3, r7, #1
     fa2:	4698      	mov	r8, r3
     fa4:	0020      	movs	r0, r4
     fa6:	301c      	adds	r0, #28
     fa8:	4b16      	ldr	r3, [pc, #88]	; (1004 <can_read+0x150>)
     faa:	4798      	blx	r3
     fac:	19e4      	adds	r4, r4, r7
     fae:	7320      	strb	r0, [r4, #12]
		for(i = 4 ; (i < (4 + (serial_can_tx_len*2)) ) ; i+=2){ // One byte means 2 character in serial
     fb0:	3502      	adds	r5, #2
			serial_can_data[index++] = hexadecimalToDecimal(can_tx_data);
     fb2:	4647      	mov	r7, r8
		for(i = 4 ; (i < (4 + (serial_can_tx_len*2)) ) ; i+=2){ // One byte means 2 character in serial
     fb4:	2328      	movs	r3, #40	; 0x28
     fb6:	4a11      	ldr	r2, [pc, #68]	; (ffc <can_read+0x148>)
     fb8:	5cd3      	ldrb	r3, [r2, r3]
     fba:	3302      	adds	r3, #2
     fbc:	005b      	lsls	r3, r3, #1
     fbe:	429d      	cmp	r5, r3
     fc0:	dbe4      	blt.n	f8c <can_read+0xd8>
     fc2:	2300      	movs	r3, #0
     fc4:	e005      	b.n	fd2 <can_read+0x11e>
			can->can_data[i] = serial_can_data[i];
     fc6:	4a0d      	ldr	r2, [pc, #52]	; (ffc <can_read+0x148>)
     fc8:	18d2      	adds	r2, r2, r3
     fca:	7b11      	ldrb	r1, [r2, #12]
     fcc:	18f2      	adds	r2, r6, r3
     fce:	7111      	strb	r1, [r2, #4]
		for(int i= 0 ; i<8 ; i++ ){
     fd0:	3301      	adds	r3, #1
     fd2:	2b07      	cmp	r3, #7
     fd4:	ddf7      	ble.n	fc6 <can_read+0x112>
		memset(rx_buffer,0,MAX_INCOMMING_STRING_LENGTH);
     fd6:	2264      	movs	r2, #100	; 0x64
     fd8:	2100      	movs	r1, #0
     fda:	4805      	ldr	r0, [pc, #20]	; (ff0 <can_read+0x13c>)
     fdc:	3028      	adds	r0, #40	; 0x28
     fde:	4b08      	ldr	r3, [pc, #32]	; (1000 <can_read+0x14c>)
     fe0:	4798      	blx	r3
		return 1;
     fe2:	2001      	movs	r0, #1
     fe4:	e775      	b.n	ed2 <can_read+0x1e>
     fe6:	46c0      	nop			; (mov r8, r8)
     fe8:	2000030c 	.word	0x2000030c
     fec:	00000601 	.word	0x00000601
     ff0:	20000238 	.word	0x20000238
     ff4:	20000508 	.word	0x20000508
     ff8:	00000441 	.word	0x00000441
     ffc:	200002b8 	.word	0x200002b8
    1000:	000011cb 	.word	0x000011cb
    1004:	00001009 	.word	0x00001009

00001008 <hexadecimalToDecimal>:
#include "utility_support.h"



int hexadecimalToDecimal(char hexVal[])
{
    1008:	b570      	push	{r4, r5, r6, lr}
    100a:	0004      	movs	r4, r0
	int len = strlen(hexVal);
    100c:	4b0e      	ldr	r3, [pc, #56]	; (1048 <hexadecimalToDecimal+0x40>)
    100e:	4798      	blx	r3
	int base = 1;
	int dec_val = 0;
	int i;
	for (i=len-1; i>=0; i--)
    1010:	1e42      	subs	r2, r0, #1
	int dec_val = 0;
    1012:	2000      	movs	r0, #0
	int base = 1;
    1014:	2501      	movs	r5, #1
	for (i=len-1; i>=0; i--)
    1016:	e009      	b.n	102c <hexadecimalToDecimal+0x24>
		if (hexVal[i]>='0' && hexVal[i]<='9')
		{
			dec_val += (hexVal[i] - 48)*base;
			base = base * 16;
		}
		else if (hexVal[i]>='A' && hexVal[i]<='F')
    1018:	0019      	movs	r1, r3
    101a:	3941      	subs	r1, #65	; 0x41
    101c:	b2c9      	uxtb	r1, r1
    101e:	2905      	cmp	r1, #5
    1020:	d803      	bhi.n	102a <hexadecimalToDecimal+0x22>
		{
			dec_val += (hexVal[i] - 55)*base;
    1022:	3b37      	subs	r3, #55	; 0x37
    1024:	436b      	muls	r3, r5
    1026:	18c0      	adds	r0, r0, r3
			base = base*16;
    1028:	012d      	lsls	r5, r5, #4
	for (i=len-1; i>=0; i--)
    102a:	3a01      	subs	r2, #1
    102c:	2a00      	cmp	r2, #0
    102e:	db0a      	blt.n	1046 <hexadecimalToDecimal+0x3e>
		if (hexVal[i]>='0' && hexVal[i]<='9')
    1030:	5ca3      	ldrb	r3, [r4, r2]
    1032:	0019      	movs	r1, r3
    1034:	3930      	subs	r1, #48	; 0x30
    1036:	b2c9      	uxtb	r1, r1
    1038:	2909      	cmp	r1, #9
    103a:	d8ed      	bhi.n	1018 <hexadecimalToDecimal+0x10>
			dec_val += (hexVal[i] - 48)*base;
    103c:	3b30      	subs	r3, #48	; 0x30
    103e:	436b      	muls	r3, r5
    1040:	18c0      	adds	r0, r0, r3
			base = base * 16;
    1042:	012d      	lsls	r5, r5, #4
    1044:	e7f1      	b.n	102a <hexadecimalToDecimal+0x22>
		}
	}
	
	return dec_val;
}
    1046:	bd70      	pop	{r4, r5, r6, pc}
    1048:	000013a3 	.word	0x000013a3

0000104c <_read>:
#include <stdio.h>

int __attribute__((weak)) _read(int file, char *ptr, int len); /* Remove GCC compiler warning */

int __attribute__((weak)) _read(int file, char *ptr, int len)
{
    104c:	b510      	push	{r4, lr}
    104e:	000b      	movs	r3, r1
	int n = 0;

	if (file != 0) {
    1050:	2800      	cmp	r0, #0
    1052:	d109      	bne.n	1068 <_read+0x1c>
		return -1;
	}

	n = stdio_io_read((uint8_t *)ptr, len);
    1054:	0011      	movs	r1, r2
    1056:	0018      	movs	r0, r3
    1058:	4b05      	ldr	r3, [pc, #20]	; (1070 <_read+0x24>)
    105a:	4798      	blx	r3
	if (n < 0) {
    105c:	2800      	cmp	r0, #0
    105e:	db00      	blt.n	1062 <_read+0x16>
		return -1;
	}

	return n;
}
    1060:	bd10      	pop	{r4, pc}
		return -1;
    1062:	2001      	movs	r0, #1
    1064:	4240      	negs	r0, r0
    1066:	e7fb      	b.n	1060 <_read+0x14>
		return -1;
    1068:	2001      	movs	r0, #1
    106a:	4240      	negs	r0, r0
    106c:	e7f8      	b.n	1060 <_read+0x14>
    106e:	46c0      	nop			; (mov r8, r8)
    1070:	000010c9 	.word	0x000010c9

00001074 <_write>:
#include <stdio.h>

int __attribute__((weak)) _write(int file, char *ptr, int len); /* Remove GCC compiler warning */

int __attribute__((weak)) _write(int file, char *ptr, int len)
{
    1074:	b510      	push	{r4, lr}
    1076:	000b      	movs	r3, r1
	int n = 0;

	if ((file != 1) && (file != 2) && (file != 3)) {
    1078:	3801      	subs	r0, #1
    107a:	2802      	cmp	r0, #2
    107c:	d809      	bhi.n	1092 <_write+0x1e>
		return -1;
	}

	n = stdio_io_write((const uint8_t *)ptr, len);
    107e:	0011      	movs	r1, r2
    1080:	0018      	movs	r0, r3
    1082:	4b05      	ldr	r3, [pc, #20]	; (1098 <_write+0x24>)
    1084:	4798      	blx	r3
	if (n < 0) {
    1086:	2800      	cmp	r0, #0
    1088:	db00      	blt.n	108c <_write+0x18>
		return -1;
	}

	return n;
}
    108a:	bd10      	pop	{r4, pc}
		return -1;
    108c:	2001      	movs	r0, #1
    108e:	4240      	negs	r0, r0
    1090:	e7fb      	b.n	108a <_write+0x16>
		return -1;
    1092:	2001      	movs	r0, #1
    1094:	4240      	negs	r0, r0
    1096:	e7f8      	b.n	108a <_write+0x16>
    1098:	000010ed 	.word	0x000010ed

0000109c <stdio_io_init>:

/** IO descriptor for STDIO access. */
static struct io_descriptor *stdio_io = NULL;

void stdio_io_init(struct io_descriptor *io)
{
    109c:	b570      	push	{r4, r5, r6, lr}
    109e:	0006      	movs	r6, r0
#if defined(__GNUC__)
	/* Specify that stdout and stdin should not be buffered. */
	setbuf(stdout, NULL);
    10a0:	4d06      	ldr	r5, [pc, #24]	; (10bc <stdio_io_init+0x20>)
    10a2:	682b      	ldr	r3, [r5, #0]
    10a4:	6898      	ldr	r0, [r3, #8]
    10a6:	2100      	movs	r1, #0
    10a8:	4c05      	ldr	r4, [pc, #20]	; (10c0 <stdio_io_init+0x24>)
    10aa:	47a0      	blx	r4
	setbuf(stdin, NULL);
    10ac:	682b      	ldr	r3, [r5, #0]
    10ae:	6858      	ldr	r0, [r3, #4]
    10b0:	2100      	movs	r1, #0
    10b2:	47a0      	blx	r4
	 * and AVR GCC library:
	 * - printf() emits one character at a time.
	 * - getchar() requests only 1 byte to exit.
	 */
#endif
	stdio_io = io;
    10b4:	4b03      	ldr	r3, [pc, #12]	; (10c4 <stdio_io_init+0x28>)
    10b6:	601e      	str	r6, [r3, #0]
}
    10b8:	bd70      	pop	{r4, r5, r6, pc}
    10ba:	46c0      	nop			; (mov r8, r8)
    10bc:	20000018 	.word	0x20000018
    10c0:	000011db 	.word	0x000011db
    10c4:	200002e4 	.word	0x200002e4

000010c8 <stdio_io_read>:
{
	stdio_io = io;
}

int32_t stdio_io_read(uint8_t *buf, const int32_t len)
{
    10c8:	b510      	push	{r4, lr}
    10ca:	0004      	movs	r4, r0
	if (stdio_io == NULL) {
    10cc:	4b05      	ldr	r3, [pc, #20]	; (10e4 <stdio_io_read+0x1c>)
    10ce:	6818      	ldr	r0, [r3, #0]
    10d0:	2800      	cmp	r0, #0
    10d2:	d004      	beq.n	10de <stdio_io_read+0x16>
		return 0;
	}
	return io_read(stdio_io, buf, len);
    10d4:	b28a      	uxth	r2, r1
    10d6:	0021      	movs	r1, r4
    10d8:	4b03      	ldr	r3, [pc, #12]	; (10e8 <stdio_io_read+0x20>)
    10da:	4798      	blx	r3
}
    10dc:	bd10      	pop	{r4, pc}
		return 0;
    10de:	2000      	movs	r0, #0
    10e0:	e7fc      	b.n	10dc <stdio_io_read+0x14>
    10e2:	46c0      	nop			; (mov r8, r8)
    10e4:	200002e4 	.word	0x200002e4
    10e8:	00000441 	.word	0x00000441

000010ec <stdio_io_write>:

int32_t stdio_io_write(const uint8_t *buf, const int32_t len)
{
    10ec:	b510      	push	{r4, lr}
    10ee:	0004      	movs	r4, r0
	if (stdio_io == NULL) {
    10f0:	4b05      	ldr	r3, [pc, #20]	; (1108 <stdio_io_write+0x1c>)
    10f2:	6818      	ldr	r0, [r3, #0]
    10f4:	2800      	cmp	r0, #0
    10f6:	d004      	beq.n	1102 <stdio_io_write+0x16>
		return 0;
	}
	return io_write(stdio_io, buf, len);
    10f8:	b28a      	uxth	r2, r1
    10fa:	0021      	movs	r1, r4
    10fc:	4b03      	ldr	r3, [pc, #12]	; (110c <stdio_io_write+0x20>)
    10fe:	4798      	blx	r3
}
    1100:	bd10      	pop	{r4, pc}
		return 0;
    1102:	2000      	movs	r0, #0
    1104:	e7fc      	b.n	1100 <stdio_io_write+0x14>
    1106:	46c0      	nop			; (mov r8, r8)
    1108:	200002e4 	.word	0x200002e4
    110c:	00000409 	.word	0x00000409

00001110 <stdio_redirect_init>:
	/* Print welcome message */
	printf("\r\nHello ATMEL World!\r\n");
}

void stdio_redirect_init(void)
{
    1110:	b510      	push	{r4, lr}

	usart_sync_enable(&TARGET_IO);
    1112:	4c04      	ldr	r4, [pc, #16]	; (1124 <stdio_redirect_init+0x14>)
    1114:	0020      	movs	r0, r4
    1116:	4b04      	ldr	r3, [pc, #16]	; (1128 <stdio_redirect_init+0x18>)
    1118:	4798      	blx	r3
	stdio_io_init(&TARGET_IO.io);
    111a:	0020      	movs	r0, r4
    111c:	4b03      	ldr	r3, [pc, #12]	; (112c <stdio_redirect_init+0x1c>)
    111e:	4798      	blx	r3
}
    1120:	bd10      	pop	{r4, pc}
    1122:	46c0      	nop			; (mov r8, r8)
    1124:	2000030c 	.word	0x2000030c
    1128:	000005a5 	.word	0x000005a5
    112c:	0000109d 	.word	0x0000109d

00001130 <__libc_init_array>:
    1130:	b570      	push	{r4, r5, r6, lr}
    1132:	2600      	movs	r6, #0
    1134:	4d0c      	ldr	r5, [pc, #48]	; (1168 <__libc_init_array+0x38>)
    1136:	4c0d      	ldr	r4, [pc, #52]	; (116c <__libc_init_array+0x3c>)
    1138:	1b64      	subs	r4, r4, r5
    113a:	10a4      	asrs	r4, r4, #2
    113c:	42a6      	cmp	r6, r4
    113e:	d109      	bne.n	1154 <__libc_init_array+0x24>
    1140:	2600      	movs	r6, #0
    1142:	f001 f8ff 	bl	2344 <_init>
    1146:	4d0a      	ldr	r5, [pc, #40]	; (1170 <__libc_init_array+0x40>)
    1148:	4c0a      	ldr	r4, [pc, #40]	; (1174 <__libc_init_array+0x44>)
    114a:	1b64      	subs	r4, r4, r5
    114c:	10a4      	asrs	r4, r4, #2
    114e:	42a6      	cmp	r6, r4
    1150:	d105      	bne.n	115e <__libc_init_array+0x2e>
    1152:	bd70      	pop	{r4, r5, r6, pc}
    1154:	00b3      	lsls	r3, r6, #2
    1156:	58eb      	ldr	r3, [r5, r3]
    1158:	4798      	blx	r3
    115a:	3601      	adds	r6, #1
    115c:	e7ee      	b.n	113c <__libc_init_array+0xc>
    115e:	00b3      	lsls	r3, r6, #2
    1160:	58eb      	ldr	r3, [r5, r3]
    1162:	4798      	blx	r3
    1164:	3601      	adds	r6, #1
    1166:	e7f2      	b.n	114e <__libc_init_array+0x1e>
    1168:	00002350 	.word	0x00002350
    116c:	00002350 	.word	0x00002350
    1170:	00002350 	.word	0x00002350
    1174:	00002354 	.word	0x00002354

00001178 <__locale_ctype_ptr>:
    1178:	4b04      	ldr	r3, [pc, #16]	; (118c <__locale_ctype_ptr+0x14>)
    117a:	681b      	ldr	r3, [r3, #0]
    117c:	6a1b      	ldr	r3, [r3, #32]
    117e:	2b00      	cmp	r3, #0
    1180:	d100      	bne.n	1184 <__locale_ctype_ptr+0xc>
    1182:	4b03      	ldr	r3, [pc, #12]	; (1190 <__locale_ctype_ptr+0x18>)
    1184:	33ec      	adds	r3, #236	; 0xec
    1186:	6818      	ldr	r0, [r3, #0]
    1188:	4770      	bx	lr
    118a:	46c0      	nop			; (mov r8, r8)
    118c:	20000018 	.word	0x20000018
    1190:	2000007c 	.word	0x2000007c

00001194 <__ascii_mbtowc>:
    1194:	b082      	sub	sp, #8
    1196:	2900      	cmp	r1, #0
    1198:	d100      	bne.n	119c <__ascii_mbtowc+0x8>
    119a:	a901      	add	r1, sp, #4
    119c:	1e10      	subs	r0, r2, #0
    119e:	d006      	beq.n	11ae <__ascii_mbtowc+0x1a>
    11a0:	2b00      	cmp	r3, #0
    11a2:	d006      	beq.n	11b2 <__ascii_mbtowc+0x1e>
    11a4:	7813      	ldrb	r3, [r2, #0]
    11a6:	600b      	str	r3, [r1, #0]
    11a8:	7810      	ldrb	r0, [r2, #0]
    11aa:	1e43      	subs	r3, r0, #1
    11ac:	4198      	sbcs	r0, r3
    11ae:	b002      	add	sp, #8
    11b0:	4770      	bx	lr
    11b2:	2002      	movs	r0, #2
    11b4:	4240      	negs	r0, r0
    11b6:	e7fa      	b.n	11ae <__ascii_mbtowc+0x1a>

000011b8 <memcpy>:
    11b8:	2300      	movs	r3, #0
    11ba:	b510      	push	{r4, lr}
    11bc:	429a      	cmp	r2, r3
    11be:	d100      	bne.n	11c2 <memcpy+0xa>
    11c0:	bd10      	pop	{r4, pc}
    11c2:	5ccc      	ldrb	r4, [r1, r3]
    11c4:	54c4      	strb	r4, [r0, r3]
    11c6:	3301      	adds	r3, #1
    11c8:	e7f8      	b.n	11bc <memcpy+0x4>

000011ca <memset>:
    11ca:	0003      	movs	r3, r0
    11cc:	1882      	adds	r2, r0, r2
    11ce:	4293      	cmp	r3, r2
    11d0:	d100      	bne.n	11d4 <memset+0xa>
    11d2:	4770      	bx	lr
    11d4:	7019      	strb	r1, [r3, #0]
    11d6:	3301      	adds	r3, #1
    11d8:	e7f9      	b.n	11ce <memset+0x4>

000011da <setbuf>:
    11da:	424a      	negs	r2, r1
    11dc:	414a      	adcs	r2, r1
    11de:	2380      	movs	r3, #128	; 0x80
    11e0:	b510      	push	{r4, lr}
    11e2:	0052      	lsls	r2, r2, #1
    11e4:	00db      	lsls	r3, r3, #3
    11e6:	f000 f801 	bl	11ec <setvbuf>
    11ea:	bd10      	pop	{r4, pc}

000011ec <setvbuf>:
    11ec:	b5f0      	push	{r4, r5, r6, r7, lr}
    11ee:	001d      	movs	r5, r3
    11f0:	4b4f      	ldr	r3, [pc, #316]	; (1330 <setvbuf+0x144>)
    11f2:	b085      	sub	sp, #20
    11f4:	681e      	ldr	r6, [r3, #0]
    11f6:	0004      	movs	r4, r0
    11f8:	000f      	movs	r7, r1
    11fa:	9200      	str	r2, [sp, #0]
    11fc:	2e00      	cmp	r6, #0
    11fe:	d005      	beq.n	120c <setvbuf+0x20>
    1200:	69b3      	ldr	r3, [r6, #24]
    1202:	2b00      	cmp	r3, #0
    1204:	d102      	bne.n	120c <setvbuf+0x20>
    1206:	0030      	movs	r0, r6
    1208:	f000 f9d6 	bl	15b8 <__sinit>
    120c:	4b49      	ldr	r3, [pc, #292]	; (1334 <setvbuf+0x148>)
    120e:	429c      	cmp	r4, r3
    1210:	d150      	bne.n	12b4 <setvbuf+0xc8>
    1212:	6874      	ldr	r4, [r6, #4]
    1214:	9b00      	ldr	r3, [sp, #0]
    1216:	2b02      	cmp	r3, #2
    1218:	d005      	beq.n	1226 <setvbuf+0x3a>
    121a:	2b01      	cmp	r3, #1
    121c:	d900      	bls.n	1220 <setvbuf+0x34>
    121e:	e084      	b.n	132a <setvbuf+0x13e>
    1220:	2d00      	cmp	r5, #0
    1222:	da00      	bge.n	1226 <setvbuf+0x3a>
    1224:	e081      	b.n	132a <setvbuf+0x13e>
    1226:	0021      	movs	r1, r4
    1228:	0030      	movs	r0, r6
    122a:	f000 f957 	bl	14dc <_fflush_r>
    122e:	6b61      	ldr	r1, [r4, #52]	; 0x34
    1230:	2900      	cmp	r1, #0
    1232:	d008      	beq.n	1246 <setvbuf+0x5a>
    1234:	0023      	movs	r3, r4
    1236:	3344      	adds	r3, #68	; 0x44
    1238:	4299      	cmp	r1, r3
    123a:	d002      	beq.n	1242 <setvbuf+0x56>
    123c:	0030      	movs	r0, r6
    123e:	f000 fa83 	bl	1748 <_free_r>
    1242:	2300      	movs	r3, #0
    1244:	6363      	str	r3, [r4, #52]	; 0x34
    1246:	2300      	movs	r3, #0
    1248:	61a3      	str	r3, [r4, #24]
    124a:	6063      	str	r3, [r4, #4]
    124c:	89a3      	ldrh	r3, [r4, #12]
    124e:	061b      	lsls	r3, r3, #24
    1250:	d503      	bpl.n	125a <setvbuf+0x6e>
    1252:	6921      	ldr	r1, [r4, #16]
    1254:	0030      	movs	r0, r6
    1256:	f000 fa77 	bl	1748 <_free_r>
    125a:	89a3      	ldrh	r3, [r4, #12]
    125c:	4a36      	ldr	r2, [pc, #216]	; (1338 <setvbuf+0x14c>)
    125e:	4013      	ands	r3, r2
    1260:	81a3      	strh	r3, [r4, #12]
    1262:	9b00      	ldr	r3, [sp, #0]
    1264:	2b02      	cmp	r3, #2
    1266:	d05a      	beq.n	131e <setvbuf+0x132>
    1268:	ab03      	add	r3, sp, #12
    126a:	aa02      	add	r2, sp, #8
    126c:	0021      	movs	r1, r4
    126e:	0030      	movs	r0, r6
    1270:	f000 fa38 	bl	16e4 <__swhatbuf_r>
    1274:	89a3      	ldrh	r3, [r4, #12]
    1276:	4318      	orrs	r0, r3
    1278:	81a0      	strh	r0, [r4, #12]
    127a:	2d00      	cmp	r5, #0
    127c:	d124      	bne.n	12c8 <setvbuf+0xdc>
    127e:	9d02      	ldr	r5, [sp, #8]
    1280:	0028      	movs	r0, r5
    1282:	f000 fa57 	bl	1734 <malloc>
    1286:	9501      	str	r5, [sp, #4]
    1288:	1e07      	subs	r7, r0, #0
    128a:	d142      	bne.n	1312 <setvbuf+0x126>
    128c:	9b02      	ldr	r3, [sp, #8]
    128e:	9301      	str	r3, [sp, #4]
    1290:	42ab      	cmp	r3, r5
    1292:	d139      	bne.n	1308 <setvbuf+0x11c>
    1294:	2001      	movs	r0, #1
    1296:	4240      	negs	r0, r0
    1298:	2302      	movs	r3, #2
    129a:	89a2      	ldrh	r2, [r4, #12]
    129c:	4313      	orrs	r3, r2
    129e:	81a3      	strh	r3, [r4, #12]
    12a0:	2300      	movs	r3, #0
    12a2:	60a3      	str	r3, [r4, #8]
    12a4:	0023      	movs	r3, r4
    12a6:	3347      	adds	r3, #71	; 0x47
    12a8:	6023      	str	r3, [r4, #0]
    12aa:	6123      	str	r3, [r4, #16]
    12ac:	2301      	movs	r3, #1
    12ae:	6163      	str	r3, [r4, #20]
    12b0:	b005      	add	sp, #20
    12b2:	bdf0      	pop	{r4, r5, r6, r7, pc}
    12b4:	4b21      	ldr	r3, [pc, #132]	; (133c <setvbuf+0x150>)
    12b6:	429c      	cmp	r4, r3
    12b8:	d101      	bne.n	12be <setvbuf+0xd2>
    12ba:	68b4      	ldr	r4, [r6, #8]
    12bc:	e7aa      	b.n	1214 <setvbuf+0x28>
    12be:	4b20      	ldr	r3, [pc, #128]	; (1340 <setvbuf+0x154>)
    12c0:	429c      	cmp	r4, r3
    12c2:	d1a7      	bne.n	1214 <setvbuf+0x28>
    12c4:	68f4      	ldr	r4, [r6, #12]
    12c6:	e7a5      	b.n	1214 <setvbuf+0x28>
    12c8:	2f00      	cmp	r7, #0
    12ca:	d0d9      	beq.n	1280 <setvbuf+0x94>
    12cc:	69b3      	ldr	r3, [r6, #24]
    12ce:	2b00      	cmp	r3, #0
    12d0:	d102      	bne.n	12d8 <setvbuf+0xec>
    12d2:	0030      	movs	r0, r6
    12d4:	f000 f970 	bl	15b8 <__sinit>
    12d8:	9b00      	ldr	r3, [sp, #0]
    12da:	2b01      	cmp	r3, #1
    12dc:	d103      	bne.n	12e6 <setvbuf+0xfa>
    12de:	89a3      	ldrh	r3, [r4, #12]
    12e0:	9a00      	ldr	r2, [sp, #0]
    12e2:	431a      	orrs	r2, r3
    12e4:	81a2      	strh	r2, [r4, #12]
    12e6:	2008      	movs	r0, #8
    12e8:	89a3      	ldrh	r3, [r4, #12]
    12ea:	6027      	str	r7, [r4, #0]
    12ec:	6127      	str	r7, [r4, #16]
    12ee:	6165      	str	r5, [r4, #20]
    12f0:	4018      	ands	r0, r3
    12f2:	d018      	beq.n	1326 <setvbuf+0x13a>
    12f4:	2001      	movs	r0, #1
    12f6:	4018      	ands	r0, r3
    12f8:	2300      	movs	r3, #0
    12fa:	4298      	cmp	r0, r3
    12fc:	d011      	beq.n	1322 <setvbuf+0x136>
    12fe:	426d      	negs	r5, r5
    1300:	60a3      	str	r3, [r4, #8]
    1302:	61a5      	str	r5, [r4, #24]
    1304:	0018      	movs	r0, r3
    1306:	e7d3      	b.n	12b0 <setvbuf+0xc4>
    1308:	9801      	ldr	r0, [sp, #4]
    130a:	f000 fa13 	bl	1734 <malloc>
    130e:	1e07      	subs	r7, r0, #0
    1310:	d0c0      	beq.n	1294 <setvbuf+0xa8>
    1312:	2380      	movs	r3, #128	; 0x80
    1314:	89a2      	ldrh	r2, [r4, #12]
    1316:	9d01      	ldr	r5, [sp, #4]
    1318:	4313      	orrs	r3, r2
    131a:	81a3      	strh	r3, [r4, #12]
    131c:	e7d6      	b.n	12cc <setvbuf+0xe0>
    131e:	2000      	movs	r0, #0
    1320:	e7ba      	b.n	1298 <setvbuf+0xac>
    1322:	60a5      	str	r5, [r4, #8]
    1324:	e7c4      	b.n	12b0 <setvbuf+0xc4>
    1326:	60a0      	str	r0, [r4, #8]
    1328:	e7c2      	b.n	12b0 <setvbuf+0xc4>
    132a:	2001      	movs	r0, #1
    132c:	4240      	negs	r0, r0
    132e:	e7bf      	b.n	12b0 <setvbuf+0xc4>
    1330:	20000018 	.word	0x20000018
    1334:	000022d0 	.word	0x000022d0
    1338:	fffff35c 	.word	0xfffff35c
    133c:	000022f0 	.word	0x000022f0
    1340:	000022b0 	.word	0x000022b0

00001344 <siprintf>:
    1344:	b40e      	push	{r1, r2, r3}
    1346:	b510      	push	{r4, lr}
    1348:	b09d      	sub	sp, #116	; 0x74
    134a:	a902      	add	r1, sp, #8
    134c:	9002      	str	r0, [sp, #8]
    134e:	6108      	str	r0, [r1, #16]
    1350:	480b      	ldr	r0, [pc, #44]	; (1380 <siprintf+0x3c>)
    1352:	2482      	movs	r4, #130	; 0x82
    1354:	6088      	str	r0, [r1, #8]
    1356:	6148      	str	r0, [r1, #20]
    1358:	2001      	movs	r0, #1
    135a:	4240      	negs	r0, r0
    135c:	ab1f      	add	r3, sp, #124	; 0x7c
    135e:	81c8      	strh	r0, [r1, #14]
    1360:	4808      	ldr	r0, [pc, #32]	; (1384 <siprintf+0x40>)
    1362:	cb04      	ldmia	r3!, {r2}
    1364:	00a4      	lsls	r4, r4, #2
    1366:	6800      	ldr	r0, [r0, #0]
    1368:	9301      	str	r3, [sp, #4]
    136a:	818c      	strh	r4, [r1, #12]
    136c:	f000 faf6 	bl	195c <_svfiprintf_r>
    1370:	2300      	movs	r3, #0
    1372:	9a02      	ldr	r2, [sp, #8]
    1374:	7013      	strb	r3, [r2, #0]
    1376:	b01d      	add	sp, #116	; 0x74
    1378:	bc10      	pop	{r4}
    137a:	bc08      	pop	{r3}
    137c:	b003      	add	sp, #12
    137e:	4718      	bx	r3
    1380:	7fffffff 	.word	0x7fffffff
    1384:	20000018 	.word	0x20000018

00001388 <strcat>:
    1388:	0002      	movs	r2, r0
    138a:	b510      	push	{r4, lr}
    138c:	7813      	ldrb	r3, [r2, #0]
    138e:	2b00      	cmp	r3, #0
    1390:	d105      	bne.n	139e <strcat+0x16>
    1392:	5ccc      	ldrb	r4, [r1, r3]
    1394:	54d4      	strb	r4, [r2, r3]
    1396:	3301      	adds	r3, #1
    1398:	2c00      	cmp	r4, #0
    139a:	d1fa      	bne.n	1392 <strcat+0xa>
    139c:	bd10      	pop	{r4, pc}
    139e:	3201      	adds	r2, #1
    13a0:	e7f4      	b.n	138c <strcat+0x4>

000013a2 <strlen>:
    13a2:	2300      	movs	r3, #0
    13a4:	5cc2      	ldrb	r2, [r0, r3]
    13a6:	3301      	adds	r3, #1
    13a8:	2a00      	cmp	r2, #0
    13aa:	d1fb      	bne.n	13a4 <strlen+0x2>
    13ac:	1e58      	subs	r0, r3, #1
    13ae:	4770      	bx	lr

000013b0 <__ascii_wctomb>:
    13b0:	1e0b      	subs	r3, r1, #0
    13b2:	d004      	beq.n	13be <__ascii_wctomb+0xe>
    13b4:	2aff      	cmp	r2, #255	; 0xff
    13b6:	d904      	bls.n	13c2 <__ascii_wctomb+0x12>
    13b8:	238a      	movs	r3, #138	; 0x8a
    13ba:	6003      	str	r3, [r0, #0]
    13bc:	3b8b      	subs	r3, #139	; 0x8b
    13be:	0018      	movs	r0, r3
    13c0:	4770      	bx	lr
    13c2:	700a      	strb	r2, [r1, #0]
    13c4:	2301      	movs	r3, #1
    13c6:	e7fa      	b.n	13be <__ascii_wctomb+0xe>

000013c8 <__sflush_r>:
    13c8:	b5f7      	push	{r0, r1, r2, r4, r5, r6, r7, lr}
    13ca:	898a      	ldrh	r2, [r1, #12]
    13cc:	0005      	movs	r5, r0
    13ce:	000c      	movs	r4, r1
    13d0:	0713      	lsls	r3, r2, #28
    13d2:	d460      	bmi.n	1496 <__sflush_r+0xce>
    13d4:	684b      	ldr	r3, [r1, #4]
    13d6:	2b00      	cmp	r3, #0
    13d8:	dc04      	bgt.n	13e4 <__sflush_r+0x1c>
    13da:	6c0b      	ldr	r3, [r1, #64]	; 0x40
    13dc:	2b00      	cmp	r3, #0
    13de:	dc01      	bgt.n	13e4 <__sflush_r+0x1c>
    13e0:	2000      	movs	r0, #0
    13e2:	bdfe      	pop	{r1, r2, r3, r4, r5, r6, r7, pc}
    13e4:	6ae7      	ldr	r7, [r4, #44]	; 0x2c
    13e6:	2f00      	cmp	r7, #0
    13e8:	d0fa      	beq.n	13e0 <__sflush_r+0x18>
    13ea:	2300      	movs	r3, #0
    13ec:	682e      	ldr	r6, [r5, #0]
    13ee:	602b      	str	r3, [r5, #0]
    13f0:	2380      	movs	r3, #128	; 0x80
    13f2:	015b      	lsls	r3, r3, #5
    13f4:	401a      	ands	r2, r3
    13f6:	d034      	beq.n	1462 <__sflush_r+0x9a>
    13f8:	6d60      	ldr	r0, [r4, #84]	; 0x54
    13fa:	89a3      	ldrh	r3, [r4, #12]
    13fc:	075b      	lsls	r3, r3, #29
    13fe:	d506      	bpl.n	140e <__sflush_r+0x46>
    1400:	6863      	ldr	r3, [r4, #4]
    1402:	1ac0      	subs	r0, r0, r3
    1404:	6b63      	ldr	r3, [r4, #52]	; 0x34
    1406:	2b00      	cmp	r3, #0
    1408:	d001      	beq.n	140e <__sflush_r+0x46>
    140a:	6c23      	ldr	r3, [r4, #64]	; 0x40
    140c:	1ac0      	subs	r0, r0, r3
    140e:	0002      	movs	r2, r0
    1410:	6a21      	ldr	r1, [r4, #32]
    1412:	2300      	movs	r3, #0
    1414:	0028      	movs	r0, r5
    1416:	6ae7      	ldr	r7, [r4, #44]	; 0x2c
    1418:	47b8      	blx	r7
    141a:	89a1      	ldrh	r1, [r4, #12]
    141c:	1c43      	adds	r3, r0, #1
    141e:	d106      	bne.n	142e <__sflush_r+0x66>
    1420:	682b      	ldr	r3, [r5, #0]
    1422:	2b1d      	cmp	r3, #29
    1424:	d831      	bhi.n	148a <__sflush_r+0xc2>
    1426:	4a2c      	ldr	r2, [pc, #176]	; (14d8 <__sflush_r+0x110>)
    1428:	40da      	lsrs	r2, r3
    142a:	07d3      	lsls	r3, r2, #31
    142c:	d52d      	bpl.n	148a <__sflush_r+0xc2>
    142e:	2300      	movs	r3, #0
    1430:	6063      	str	r3, [r4, #4]
    1432:	6923      	ldr	r3, [r4, #16]
    1434:	6023      	str	r3, [r4, #0]
    1436:	04cb      	lsls	r3, r1, #19
    1438:	d505      	bpl.n	1446 <__sflush_r+0x7e>
    143a:	1c43      	adds	r3, r0, #1
    143c:	d102      	bne.n	1444 <__sflush_r+0x7c>
    143e:	682b      	ldr	r3, [r5, #0]
    1440:	2b00      	cmp	r3, #0
    1442:	d100      	bne.n	1446 <__sflush_r+0x7e>
    1444:	6560      	str	r0, [r4, #84]	; 0x54
    1446:	6b61      	ldr	r1, [r4, #52]	; 0x34
    1448:	602e      	str	r6, [r5, #0]
    144a:	2900      	cmp	r1, #0
    144c:	d0c8      	beq.n	13e0 <__sflush_r+0x18>
    144e:	0023      	movs	r3, r4
    1450:	3344      	adds	r3, #68	; 0x44
    1452:	4299      	cmp	r1, r3
    1454:	d002      	beq.n	145c <__sflush_r+0x94>
    1456:	0028      	movs	r0, r5
    1458:	f000 f976 	bl	1748 <_free_r>
    145c:	2000      	movs	r0, #0
    145e:	6360      	str	r0, [r4, #52]	; 0x34
    1460:	e7bf      	b.n	13e2 <__sflush_r+0x1a>
    1462:	2301      	movs	r3, #1
    1464:	6a21      	ldr	r1, [r4, #32]
    1466:	0028      	movs	r0, r5
    1468:	47b8      	blx	r7
    146a:	1c43      	adds	r3, r0, #1
    146c:	d1c5      	bne.n	13fa <__sflush_r+0x32>
    146e:	682b      	ldr	r3, [r5, #0]
    1470:	2b00      	cmp	r3, #0
    1472:	d0c2      	beq.n	13fa <__sflush_r+0x32>
    1474:	2b1d      	cmp	r3, #29
    1476:	d001      	beq.n	147c <__sflush_r+0xb4>
    1478:	2b16      	cmp	r3, #22
    147a:	d101      	bne.n	1480 <__sflush_r+0xb8>
    147c:	602e      	str	r6, [r5, #0]
    147e:	e7af      	b.n	13e0 <__sflush_r+0x18>
    1480:	2340      	movs	r3, #64	; 0x40
    1482:	89a2      	ldrh	r2, [r4, #12]
    1484:	4313      	orrs	r3, r2
    1486:	81a3      	strh	r3, [r4, #12]
    1488:	e7ab      	b.n	13e2 <__sflush_r+0x1a>
    148a:	2340      	movs	r3, #64	; 0x40
    148c:	430b      	orrs	r3, r1
    148e:	2001      	movs	r0, #1
    1490:	81a3      	strh	r3, [r4, #12]
    1492:	4240      	negs	r0, r0
    1494:	e7a5      	b.n	13e2 <__sflush_r+0x1a>
    1496:	690f      	ldr	r7, [r1, #16]
    1498:	2f00      	cmp	r7, #0
    149a:	d0a1      	beq.n	13e0 <__sflush_r+0x18>
    149c:	680b      	ldr	r3, [r1, #0]
    149e:	600f      	str	r7, [r1, #0]
    14a0:	1bdb      	subs	r3, r3, r7
    14a2:	9301      	str	r3, [sp, #4]
    14a4:	2300      	movs	r3, #0
    14a6:	0792      	lsls	r2, r2, #30
    14a8:	d100      	bne.n	14ac <__sflush_r+0xe4>
    14aa:	694b      	ldr	r3, [r1, #20]
    14ac:	60a3      	str	r3, [r4, #8]
    14ae:	9b01      	ldr	r3, [sp, #4]
    14b0:	2b00      	cmp	r3, #0
    14b2:	dc00      	bgt.n	14b6 <__sflush_r+0xee>
    14b4:	e794      	b.n	13e0 <__sflush_r+0x18>
    14b6:	9b01      	ldr	r3, [sp, #4]
    14b8:	003a      	movs	r2, r7
    14ba:	6a21      	ldr	r1, [r4, #32]
    14bc:	0028      	movs	r0, r5
    14be:	6aa6      	ldr	r6, [r4, #40]	; 0x28
    14c0:	47b0      	blx	r6
    14c2:	2800      	cmp	r0, #0
    14c4:	dc03      	bgt.n	14ce <__sflush_r+0x106>
    14c6:	2340      	movs	r3, #64	; 0x40
    14c8:	89a2      	ldrh	r2, [r4, #12]
    14ca:	4313      	orrs	r3, r2
    14cc:	e7df      	b.n	148e <__sflush_r+0xc6>
    14ce:	9b01      	ldr	r3, [sp, #4]
    14d0:	183f      	adds	r7, r7, r0
    14d2:	1a1b      	subs	r3, r3, r0
    14d4:	9301      	str	r3, [sp, #4]
    14d6:	e7ea      	b.n	14ae <__sflush_r+0xe6>
    14d8:	20400001 	.word	0x20400001

000014dc <_fflush_r>:
    14dc:	690b      	ldr	r3, [r1, #16]
    14de:	b570      	push	{r4, r5, r6, lr}
    14e0:	0005      	movs	r5, r0
    14e2:	000c      	movs	r4, r1
    14e4:	2b00      	cmp	r3, #0
    14e6:	d101      	bne.n	14ec <_fflush_r+0x10>
    14e8:	2000      	movs	r0, #0
    14ea:	bd70      	pop	{r4, r5, r6, pc}
    14ec:	2800      	cmp	r0, #0
    14ee:	d004      	beq.n	14fa <_fflush_r+0x1e>
    14f0:	6983      	ldr	r3, [r0, #24]
    14f2:	2b00      	cmp	r3, #0
    14f4:	d101      	bne.n	14fa <_fflush_r+0x1e>
    14f6:	f000 f85f 	bl	15b8 <__sinit>
    14fa:	4b0b      	ldr	r3, [pc, #44]	; (1528 <_fflush_r+0x4c>)
    14fc:	429c      	cmp	r4, r3
    14fe:	d109      	bne.n	1514 <_fflush_r+0x38>
    1500:	686c      	ldr	r4, [r5, #4]
    1502:	220c      	movs	r2, #12
    1504:	5ea3      	ldrsh	r3, [r4, r2]
    1506:	2b00      	cmp	r3, #0
    1508:	d0ee      	beq.n	14e8 <_fflush_r+0xc>
    150a:	0021      	movs	r1, r4
    150c:	0028      	movs	r0, r5
    150e:	f7ff ff5b 	bl	13c8 <__sflush_r>
    1512:	e7ea      	b.n	14ea <_fflush_r+0xe>
    1514:	4b05      	ldr	r3, [pc, #20]	; (152c <_fflush_r+0x50>)
    1516:	429c      	cmp	r4, r3
    1518:	d101      	bne.n	151e <_fflush_r+0x42>
    151a:	68ac      	ldr	r4, [r5, #8]
    151c:	e7f1      	b.n	1502 <_fflush_r+0x26>
    151e:	4b04      	ldr	r3, [pc, #16]	; (1530 <_fflush_r+0x54>)
    1520:	429c      	cmp	r4, r3
    1522:	d1ee      	bne.n	1502 <_fflush_r+0x26>
    1524:	68ec      	ldr	r4, [r5, #12]
    1526:	e7ec      	b.n	1502 <_fflush_r+0x26>
    1528:	000022d0 	.word	0x000022d0
    152c:	000022f0 	.word	0x000022f0
    1530:	000022b0 	.word	0x000022b0

00001534 <_cleanup_r>:
    1534:	b510      	push	{r4, lr}
    1536:	4902      	ldr	r1, [pc, #8]	; (1540 <_cleanup_r+0xc>)
    1538:	f000 f8b2 	bl	16a0 <_fwalk_reent>
    153c:	bd10      	pop	{r4, pc}
    153e:	46c0      	nop			; (mov r8, r8)
    1540:	000014dd 	.word	0x000014dd

00001544 <std.isra.0>:
    1544:	2300      	movs	r3, #0
    1546:	b510      	push	{r4, lr}
    1548:	0004      	movs	r4, r0
    154a:	6003      	str	r3, [r0, #0]
    154c:	6043      	str	r3, [r0, #4]
    154e:	6083      	str	r3, [r0, #8]
    1550:	8181      	strh	r1, [r0, #12]
    1552:	6643      	str	r3, [r0, #100]	; 0x64
    1554:	81c2      	strh	r2, [r0, #14]
    1556:	6103      	str	r3, [r0, #16]
    1558:	6143      	str	r3, [r0, #20]
    155a:	6183      	str	r3, [r0, #24]
    155c:	0019      	movs	r1, r3
    155e:	2208      	movs	r2, #8
    1560:	305c      	adds	r0, #92	; 0x5c
    1562:	f7ff fe32 	bl	11ca <memset>
    1566:	4b05      	ldr	r3, [pc, #20]	; (157c <std.isra.0+0x38>)
    1568:	6224      	str	r4, [r4, #32]
    156a:	6263      	str	r3, [r4, #36]	; 0x24
    156c:	4b04      	ldr	r3, [pc, #16]	; (1580 <std.isra.0+0x3c>)
    156e:	62a3      	str	r3, [r4, #40]	; 0x28
    1570:	4b04      	ldr	r3, [pc, #16]	; (1584 <std.isra.0+0x40>)
    1572:	62e3      	str	r3, [r4, #44]	; 0x2c
    1574:	4b04      	ldr	r3, [pc, #16]	; (1588 <std.isra.0+0x44>)
    1576:	6323      	str	r3, [r4, #48]	; 0x30
    1578:	bd10      	pop	{r4, pc}
    157a:	46c0      	nop			; (mov r8, r8)
    157c:	00001e99 	.word	0x00001e99
    1580:	00001ec1 	.word	0x00001ec1
    1584:	00001ef9 	.word	0x00001ef9
    1588:	00001f25 	.word	0x00001f25

0000158c <__sfmoreglue>:
    158c:	b570      	push	{r4, r5, r6, lr}
    158e:	2568      	movs	r5, #104	; 0x68
    1590:	1e4a      	subs	r2, r1, #1
    1592:	4355      	muls	r5, r2
    1594:	000e      	movs	r6, r1
    1596:	0029      	movs	r1, r5
    1598:	3174      	adds	r1, #116	; 0x74
    159a:	f000 f91f 	bl	17dc <_malloc_r>
    159e:	1e04      	subs	r4, r0, #0
    15a0:	d008      	beq.n	15b4 <__sfmoreglue+0x28>
    15a2:	2100      	movs	r1, #0
    15a4:	002a      	movs	r2, r5
    15a6:	6001      	str	r1, [r0, #0]
    15a8:	6046      	str	r6, [r0, #4]
    15aa:	300c      	adds	r0, #12
    15ac:	60a0      	str	r0, [r4, #8]
    15ae:	3268      	adds	r2, #104	; 0x68
    15b0:	f7ff fe0b 	bl	11ca <memset>
    15b4:	0020      	movs	r0, r4
    15b6:	bd70      	pop	{r4, r5, r6, pc}

000015b8 <__sinit>:
    15b8:	6983      	ldr	r3, [r0, #24]
    15ba:	b513      	push	{r0, r1, r4, lr}
    15bc:	0004      	movs	r4, r0
    15be:	2b00      	cmp	r3, #0
    15c0:	d128      	bne.n	1614 <__sinit+0x5c>
    15c2:	6483      	str	r3, [r0, #72]	; 0x48
    15c4:	64c3      	str	r3, [r0, #76]	; 0x4c
    15c6:	6503      	str	r3, [r0, #80]	; 0x50
    15c8:	4b13      	ldr	r3, [pc, #76]	; (1618 <__sinit+0x60>)
    15ca:	4a14      	ldr	r2, [pc, #80]	; (161c <__sinit+0x64>)
    15cc:	681b      	ldr	r3, [r3, #0]
    15ce:	6282      	str	r2, [r0, #40]	; 0x28
    15d0:	9301      	str	r3, [sp, #4]
    15d2:	4298      	cmp	r0, r3
    15d4:	d101      	bne.n	15da <__sinit+0x22>
    15d6:	2301      	movs	r3, #1
    15d8:	6183      	str	r3, [r0, #24]
    15da:	0020      	movs	r0, r4
    15dc:	f000 f820 	bl	1620 <__sfp>
    15e0:	6060      	str	r0, [r4, #4]
    15e2:	0020      	movs	r0, r4
    15e4:	f000 f81c 	bl	1620 <__sfp>
    15e8:	60a0      	str	r0, [r4, #8]
    15ea:	0020      	movs	r0, r4
    15ec:	f000 f818 	bl	1620 <__sfp>
    15f0:	2200      	movs	r2, #0
    15f2:	60e0      	str	r0, [r4, #12]
    15f4:	2104      	movs	r1, #4
    15f6:	6860      	ldr	r0, [r4, #4]
    15f8:	f7ff ffa4 	bl	1544 <std.isra.0>
    15fc:	2201      	movs	r2, #1
    15fe:	2109      	movs	r1, #9
    1600:	68a0      	ldr	r0, [r4, #8]
    1602:	f7ff ff9f 	bl	1544 <std.isra.0>
    1606:	2202      	movs	r2, #2
    1608:	2112      	movs	r1, #18
    160a:	68e0      	ldr	r0, [r4, #12]
    160c:	f7ff ff9a 	bl	1544 <std.isra.0>
    1610:	2301      	movs	r3, #1
    1612:	61a3      	str	r3, [r4, #24]
    1614:	bd13      	pop	{r0, r1, r4, pc}
    1616:	46c0      	nop			; (mov r8, r8)
    1618:	000021a0 	.word	0x000021a0
    161c:	00001535 	.word	0x00001535

00001620 <__sfp>:
    1620:	b5f8      	push	{r3, r4, r5, r6, r7, lr}
    1622:	4b1e      	ldr	r3, [pc, #120]	; (169c <__sfp+0x7c>)
    1624:	0007      	movs	r7, r0
    1626:	681e      	ldr	r6, [r3, #0]
    1628:	69b3      	ldr	r3, [r6, #24]
    162a:	2b00      	cmp	r3, #0
    162c:	d102      	bne.n	1634 <__sfp+0x14>
    162e:	0030      	movs	r0, r6
    1630:	f7ff ffc2 	bl	15b8 <__sinit>
    1634:	3648      	adds	r6, #72	; 0x48
    1636:	68b4      	ldr	r4, [r6, #8]
    1638:	6873      	ldr	r3, [r6, #4]
    163a:	3b01      	subs	r3, #1
    163c:	d504      	bpl.n	1648 <__sfp+0x28>
    163e:	6833      	ldr	r3, [r6, #0]
    1640:	2b00      	cmp	r3, #0
    1642:	d007      	beq.n	1654 <__sfp+0x34>
    1644:	6836      	ldr	r6, [r6, #0]
    1646:	e7f6      	b.n	1636 <__sfp+0x16>
    1648:	220c      	movs	r2, #12
    164a:	5ea5      	ldrsh	r5, [r4, r2]
    164c:	2d00      	cmp	r5, #0
    164e:	d00d      	beq.n	166c <__sfp+0x4c>
    1650:	3468      	adds	r4, #104	; 0x68
    1652:	e7f2      	b.n	163a <__sfp+0x1a>
    1654:	2104      	movs	r1, #4
    1656:	0038      	movs	r0, r7
    1658:	f7ff ff98 	bl	158c <__sfmoreglue>
    165c:	6030      	str	r0, [r6, #0]
    165e:	2800      	cmp	r0, #0
    1660:	d1f0      	bne.n	1644 <__sfp+0x24>
    1662:	230c      	movs	r3, #12
    1664:	0004      	movs	r4, r0
    1666:	603b      	str	r3, [r7, #0]
    1668:	0020      	movs	r0, r4
    166a:	bdf8      	pop	{r3, r4, r5, r6, r7, pc}
    166c:	2301      	movs	r3, #1
    166e:	0020      	movs	r0, r4
    1670:	425b      	negs	r3, r3
    1672:	81e3      	strh	r3, [r4, #14]
    1674:	3302      	adds	r3, #2
    1676:	81a3      	strh	r3, [r4, #12]
    1678:	6665      	str	r5, [r4, #100]	; 0x64
    167a:	6025      	str	r5, [r4, #0]
    167c:	60a5      	str	r5, [r4, #8]
    167e:	6065      	str	r5, [r4, #4]
    1680:	6125      	str	r5, [r4, #16]
    1682:	6165      	str	r5, [r4, #20]
    1684:	61a5      	str	r5, [r4, #24]
    1686:	2208      	movs	r2, #8
    1688:	0029      	movs	r1, r5
    168a:	305c      	adds	r0, #92	; 0x5c
    168c:	f7ff fd9d 	bl	11ca <memset>
    1690:	6365      	str	r5, [r4, #52]	; 0x34
    1692:	63a5      	str	r5, [r4, #56]	; 0x38
    1694:	64a5      	str	r5, [r4, #72]	; 0x48
    1696:	64e5      	str	r5, [r4, #76]	; 0x4c
    1698:	e7e6      	b.n	1668 <__sfp+0x48>
    169a:	46c0      	nop			; (mov r8, r8)
    169c:	000021a0 	.word	0x000021a0

000016a0 <_fwalk_reent>:
    16a0:	b5f7      	push	{r0, r1, r2, r4, r5, r6, r7, lr}
    16a2:	0004      	movs	r4, r0
    16a4:	0007      	movs	r7, r0
    16a6:	2600      	movs	r6, #0
    16a8:	9101      	str	r1, [sp, #4]
    16aa:	3448      	adds	r4, #72	; 0x48
    16ac:	2c00      	cmp	r4, #0
    16ae:	d101      	bne.n	16b4 <_fwalk_reent+0x14>
    16b0:	0030      	movs	r0, r6
    16b2:	bdfe      	pop	{r1, r2, r3, r4, r5, r6, r7, pc}
    16b4:	6863      	ldr	r3, [r4, #4]
    16b6:	68a5      	ldr	r5, [r4, #8]
    16b8:	9300      	str	r3, [sp, #0]
    16ba:	9b00      	ldr	r3, [sp, #0]
    16bc:	3b01      	subs	r3, #1
    16be:	9300      	str	r3, [sp, #0]
    16c0:	d501      	bpl.n	16c6 <_fwalk_reent+0x26>
    16c2:	6824      	ldr	r4, [r4, #0]
    16c4:	e7f2      	b.n	16ac <_fwalk_reent+0xc>
    16c6:	89ab      	ldrh	r3, [r5, #12]
    16c8:	2b01      	cmp	r3, #1
    16ca:	d908      	bls.n	16de <_fwalk_reent+0x3e>
    16cc:	220e      	movs	r2, #14
    16ce:	5eab      	ldrsh	r3, [r5, r2]
    16d0:	3301      	adds	r3, #1
    16d2:	d004      	beq.n	16de <_fwalk_reent+0x3e>
    16d4:	0029      	movs	r1, r5
    16d6:	0038      	movs	r0, r7
    16d8:	9b01      	ldr	r3, [sp, #4]
    16da:	4798      	blx	r3
    16dc:	4306      	orrs	r6, r0
    16de:	3568      	adds	r5, #104	; 0x68
    16e0:	e7eb      	b.n	16ba <_fwalk_reent+0x1a>
	...

000016e4 <__swhatbuf_r>:
    16e4:	b570      	push	{r4, r5, r6, lr}
    16e6:	000e      	movs	r6, r1
    16e8:	001d      	movs	r5, r3
    16ea:	230e      	movs	r3, #14
    16ec:	5ec9      	ldrsh	r1, [r1, r3]
    16ee:	b090      	sub	sp, #64	; 0x40
    16f0:	0014      	movs	r4, r2
    16f2:	2900      	cmp	r1, #0
    16f4:	da07      	bge.n	1706 <__swhatbuf_r+0x22>
    16f6:	2300      	movs	r3, #0
    16f8:	602b      	str	r3, [r5, #0]
    16fa:	89b3      	ldrh	r3, [r6, #12]
    16fc:	061b      	lsls	r3, r3, #24
    16fe:	d411      	bmi.n	1724 <__swhatbuf_r+0x40>
    1700:	2380      	movs	r3, #128	; 0x80
    1702:	00db      	lsls	r3, r3, #3
    1704:	e00f      	b.n	1726 <__swhatbuf_r+0x42>
    1706:	aa01      	add	r2, sp, #4
    1708:	f000 fc38 	bl	1f7c <_fstat_r>
    170c:	2800      	cmp	r0, #0
    170e:	dbf2      	blt.n	16f6 <__swhatbuf_r+0x12>
    1710:	22f0      	movs	r2, #240	; 0xf0
    1712:	9b02      	ldr	r3, [sp, #8]
    1714:	0212      	lsls	r2, r2, #8
    1716:	4013      	ands	r3, r2
    1718:	4a05      	ldr	r2, [pc, #20]	; (1730 <__swhatbuf_r+0x4c>)
    171a:	189b      	adds	r3, r3, r2
    171c:	425a      	negs	r2, r3
    171e:	4153      	adcs	r3, r2
    1720:	602b      	str	r3, [r5, #0]
    1722:	e7ed      	b.n	1700 <__swhatbuf_r+0x1c>
    1724:	2340      	movs	r3, #64	; 0x40
    1726:	2000      	movs	r0, #0
    1728:	6023      	str	r3, [r4, #0]
    172a:	b010      	add	sp, #64	; 0x40
    172c:	bd70      	pop	{r4, r5, r6, pc}
    172e:	46c0      	nop			; (mov r8, r8)
    1730:	ffffe000 	.word	0xffffe000

00001734 <malloc>:
    1734:	b510      	push	{r4, lr}
    1736:	4b03      	ldr	r3, [pc, #12]	; (1744 <malloc+0x10>)
    1738:	0001      	movs	r1, r0
    173a:	6818      	ldr	r0, [r3, #0]
    173c:	f000 f84e 	bl	17dc <_malloc_r>
    1740:	bd10      	pop	{r4, pc}
    1742:	46c0      	nop			; (mov r8, r8)
    1744:	20000018 	.word	0x20000018

00001748 <_free_r>:
    1748:	b570      	push	{r4, r5, r6, lr}
    174a:	0005      	movs	r5, r0
    174c:	2900      	cmp	r1, #0
    174e:	d010      	beq.n	1772 <_free_r+0x2a>
    1750:	1f0c      	subs	r4, r1, #4
    1752:	6823      	ldr	r3, [r4, #0]
    1754:	2b00      	cmp	r3, #0
    1756:	da00      	bge.n	175a <_free_r+0x12>
    1758:	18e4      	adds	r4, r4, r3
    175a:	0028      	movs	r0, r5
    175c:	f000 fc51 	bl	2002 <__malloc_lock>
    1760:	4a1d      	ldr	r2, [pc, #116]	; (17d8 <_free_r+0x90>)
    1762:	6813      	ldr	r3, [r2, #0]
    1764:	2b00      	cmp	r3, #0
    1766:	d105      	bne.n	1774 <_free_r+0x2c>
    1768:	6063      	str	r3, [r4, #4]
    176a:	6014      	str	r4, [r2, #0]
    176c:	0028      	movs	r0, r5
    176e:	f000 fc49 	bl	2004 <__malloc_unlock>
    1772:	bd70      	pop	{r4, r5, r6, pc}
    1774:	42a3      	cmp	r3, r4
    1776:	d909      	bls.n	178c <_free_r+0x44>
    1778:	6821      	ldr	r1, [r4, #0]
    177a:	1860      	adds	r0, r4, r1
    177c:	4283      	cmp	r3, r0
    177e:	d1f3      	bne.n	1768 <_free_r+0x20>
    1780:	6818      	ldr	r0, [r3, #0]
    1782:	685b      	ldr	r3, [r3, #4]
    1784:	1841      	adds	r1, r0, r1
    1786:	6021      	str	r1, [r4, #0]
    1788:	e7ee      	b.n	1768 <_free_r+0x20>
    178a:	0013      	movs	r3, r2
    178c:	685a      	ldr	r2, [r3, #4]
    178e:	2a00      	cmp	r2, #0
    1790:	d001      	beq.n	1796 <_free_r+0x4e>
    1792:	42a2      	cmp	r2, r4
    1794:	d9f9      	bls.n	178a <_free_r+0x42>
    1796:	6819      	ldr	r1, [r3, #0]
    1798:	1858      	adds	r0, r3, r1
    179a:	42a0      	cmp	r0, r4
    179c:	d10b      	bne.n	17b6 <_free_r+0x6e>
    179e:	6820      	ldr	r0, [r4, #0]
    17a0:	1809      	adds	r1, r1, r0
    17a2:	1858      	adds	r0, r3, r1
    17a4:	6019      	str	r1, [r3, #0]
    17a6:	4282      	cmp	r2, r0
    17a8:	d1e0      	bne.n	176c <_free_r+0x24>
    17aa:	6810      	ldr	r0, [r2, #0]
    17ac:	6852      	ldr	r2, [r2, #4]
    17ae:	1841      	adds	r1, r0, r1
    17b0:	6019      	str	r1, [r3, #0]
    17b2:	605a      	str	r2, [r3, #4]
    17b4:	e7da      	b.n	176c <_free_r+0x24>
    17b6:	42a0      	cmp	r0, r4
    17b8:	d902      	bls.n	17c0 <_free_r+0x78>
    17ba:	230c      	movs	r3, #12
    17bc:	602b      	str	r3, [r5, #0]
    17be:	e7d5      	b.n	176c <_free_r+0x24>
    17c0:	6821      	ldr	r1, [r4, #0]
    17c2:	1860      	adds	r0, r4, r1
    17c4:	4282      	cmp	r2, r0
    17c6:	d103      	bne.n	17d0 <_free_r+0x88>
    17c8:	6810      	ldr	r0, [r2, #0]
    17ca:	6852      	ldr	r2, [r2, #4]
    17cc:	1841      	adds	r1, r0, r1
    17ce:	6021      	str	r1, [r4, #0]
    17d0:	6062      	str	r2, [r4, #4]
    17d2:	605c      	str	r4, [r3, #4]
    17d4:	e7ca      	b.n	176c <_free_r+0x24>
    17d6:	46c0      	nop			; (mov r8, r8)
    17d8:	200002e8 	.word	0x200002e8

000017dc <_malloc_r>:
    17dc:	2303      	movs	r3, #3
    17de:	b570      	push	{r4, r5, r6, lr}
    17e0:	1ccd      	adds	r5, r1, #3
    17e2:	439d      	bics	r5, r3
    17e4:	3508      	adds	r5, #8
    17e6:	0006      	movs	r6, r0
    17e8:	2d0c      	cmp	r5, #12
    17ea:	d21e      	bcs.n	182a <_malloc_r+0x4e>
    17ec:	250c      	movs	r5, #12
    17ee:	42a9      	cmp	r1, r5
    17f0:	d81d      	bhi.n	182e <_malloc_r+0x52>
    17f2:	0030      	movs	r0, r6
    17f4:	f000 fc05 	bl	2002 <__malloc_lock>
    17f8:	4a25      	ldr	r2, [pc, #148]	; (1890 <_malloc_r+0xb4>)
    17fa:	6814      	ldr	r4, [r2, #0]
    17fc:	0021      	movs	r1, r4
    17fe:	2900      	cmp	r1, #0
    1800:	d119      	bne.n	1836 <_malloc_r+0x5a>
    1802:	4c24      	ldr	r4, [pc, #144]	; (1894 <_malloc_r+0xb8>)
    1804:	6823      	ldr	r3, [r4, #0]
    1806:	2b00      	cmp	r3, #0
    1808:	d103      	bne.n	1812 <_malloc_r+0x36>
    180a:	0030      	movs	r0, r6
    180c:	f000 fb32 	bl	1e74 <_sbrk_r>
    1810:	6020      	str	r0, [r4, #0]
    1812:	0029      	movs	r1, r5
    1814:	0030      	movs	r0, r6
    1816:	f000 fb2d 	bl	1e74 <_sbrk_r>
    181a:	1c43      	adds	r3, r0, #1
    181c:	d12c      	bne.n	1878 <_malloc_r+0x9c>
    181e:	230c      	movs	r3, #12
    1820:	0030      	movs	r0, r6
    1822:	6033      	str	r3, [r6, #0]
    1824:	f000 fbee 	bl	2004 <__malloc_unlock>
    1828:	e003      	b.n	1832 <_malloc_r+0x56>
    182a:	2d00      	cmp	r5, #0
    182c:	dadf      	bge.n	17ee <_malloc_r+0x12>
    182e:	230c      	movs	r3, #12
    1830:	6033      	str	r3, [r6, #0]
    1832:	2000      	movs	r0, #0
    1834:	bd70      	pop	{r4, r5, r6, pc}
    1836:	680b      	ldr	r3, [r1, #0]
    1838:	1b5b      	subs	r3, r3, r5
    183a:	d41a      	bmi.n	1872 <_malloc_r+0x96>
    183c:	2b0b      	cmp	r3, #11
    183e:	d903      	bls.n	1848 <_malloc_r+0x6c>
    1840:	600b      	str	r3, [r1, #0]
    1842:	18cc      	adds	r4, r1, r3
    1844:	6025      	str	r5, [r4, #0]
    1846:	e003      	b.n	1850 <_malloc_r+0x74>
    1848:	428c      	cmp	r4, r1
    184a:	d10e      	bne.n	186a <_malloc_r+0x8e>
    184c:	6863      	ldr	r3, [r4, #4]
    184e:	6013      	str	r3, [r2, #0]
    1850:	0030      	movs	r0, r6
    1852:	f000 fbd7 	bl	2004 <__malloc_unlock>
    1856:	0020      	movs	r0, r4
    1858:	2207      	movs	r2, #7
    185a:	300b      	adds	r0, #11
    185c:	1d23      	adds	r3, r4, #4
    185e:	4390      	bics	r0, r2
    1860:	1ac3      	subs	r3, r0, r3
    1862:	d0e7      	beq.n	1834 <_malloc_r+0x58>
    1864:	425a      	negs	r2, r3
    1866:	50e2      	str	r2, [r4, r3]
    1868:	e7e4      	b.n	1834 <_malloc_r+0x58>
    186a:	684b      	ldr	r3, [r1, #4]
    186c:	6063      	str	r3, [r4, #4]
    186e:	000c      	movs	r4, r1
    1870:	e7ee      	b.n	1850 <_malloc_r+0x74>
    1872:	000c      	movs	r4, r1
    1874:	6849      	ldr	r1, [r1, #4]
    1876:	e7c2      	b.n	17fe <_malloc_r+0x22>
    1878:	2303      	movs	r3, #3
    187a:	1cc4      	adds	r4, r0, #3
    187c:	439c      	bics	r4, r3
    187e:	42a0      	cmp	r0, r4
    1880:	d0e0      	beq.n	1844 <_malloc_r+0x68>
    1882:	1a21      	subs	r1, r4, r0
    1884:	0030      	movs	r0, r6
    1886:	f000 faf5 	bl	1e74 <_sbrk_r>
    188a:	1c43      	adds	r3, r0, #1
    188c:	d1da      	bne.n	1844 <_malloc_r+0x68>
    188e:	e7c6      	b.n	181e <_malloc_r+0x42>
    1890:	200002e8 	.word	0x200002e8
    1894:	200002ec 	.word	0x200002ec

00001898 <__ssputs_r>:
    1898:	b5f0      	push	{r4, r5, r6, r7, lr}
    189a:	688e      	ldr	r6, [r1, #8]
    189c:	b085      	sub	sp, #20
    189e:	0007      	movs	r7, r0
    18a0:	000c      	movs	r4, r1
    18a2:	9203      	str	r2, [sp, #12]
    18a4:	9301      	str	r3, [sp, #4]
    18a6:	429e      	cmp	r6, r3
    18a8:	d839      	bhi.n	191e <__ssputs_r+0x86>
    18aa:	2390      	movs	r3, #144	; 0x90
    18ac:	898a      	ldrh	r2, [r1, #12]
    18ae:	00db      	lsls	r3, r3, #3
    18b0:	421a      	tst	r2, r3
    18b2:	d034      	beq.n	191e <__ssputs_r+0x86>
    18b4:	2503      	movs	r5, #3
    18b6:	6909      	ldr	r1, [r1, #16]
    18b8:	6823      	ldr	r3, [r4, #0]
    18ba:	1a5b      	subs	r3, r3, r1
    18bc:	9302      	str	r3, [sp, #8]
    18be:	6963      	ldr	r3, [r4, #20]
    18c0:	9802      	ldr	r0, [sp, #8]
    18c2:	435d      	muls	r5, r3
    18c4:	0feb      	lsrs	r3, r5, #31
    18c6:	195d      	adds	r5, r3, r5
    18c8:	9b01      	ldr	r3, [sp, #4]
    18ca:	106d      	asrs	r5, r5, #1
    18cc:	3301      	adds	r3, #1
    18ce:	181b      	adds	r3, r3, r0
    18d0:	42ab      	cmp	r3, r5
    18d2:	d900      	bls.n	18d6 <__ssputs_r+0x3e>
    18d4:	001d      	movs	r5, r3
    18d6:	0553      	lsls	r3, r2, #21
    18d8:	d532      	bpl.n	1940 <__ssputs_r+0xa8>
    18da:	0029      	movs	r1, r5
    18dc:	0038      	movs	r0, r7
    18de:	f7ff ff7d 	bl	17dc <_malloc_r>
    18e2:	1e06      	subs	r6, r0, #0
    18e4:	d109      	bne.n	18fa <__ssputs_r+0x62>
    18e6:	230c      	movs	r3, #12
    18e8:	603b      	str	r3, [r7, #0]
    18ea:	2340      	movs	r3, #64	; 0x40
    18ec:	2001      	movs	r0, #1
    18ee:	89a2      	ldrh	r2, [r4, #12]
    18f0:	4240      	negs	r0, r0
    18f2:	4313      	orrs	r3, r2
    18f4:	81a3      	strh	r3, [r4, #12]
    18f6:	b005      	add	sp, #20
    18f8:	bdf0      	pop	{r4, r5, r6, r7, pc}
    18fa:	9a02      	ldr	r2, [sp, #8]
    18fc:	6921      	ldr	r1, [r4, #16]
    18fe:	f7ff fc5b 	bl	11b8 <memcpy>
    1902:	89a3      	ldrh	r3, [r4, #12]
    1904:	4a14      	ldr	r2, [pc, #80]	; (1958 <__ssputs_r+0xc0>)
    1906:	401a      	ands	r2, r3
    1908:	2380      	movs	r3, #128	; 0x80
    190a:	4313      	orrs	r3, r2
    190c:	81a3      	strh	r3, [r4, #12]
    190e:	9b02      	ldr	r3, [sp, #8]
    1910:	6126      	str	r6, [r4, #16]
    1912:	18f6      	adds	r6, r6, r3
    1914:	6026      	str	r6, [r4, #0]
    1916:	6165      	str	r5, [r4, #20]
    1918:	9e01      	ldr	r6, [sp, #4]
    191a:	1aed      	subs	r5, r5, r3
    191c:	60a5      	str	r5, [r4, #8]
    191e:	9b01      	ldr	r3, [sp, #4]
    1920:	42b3      	cmp	r3, r6
    1922:	d200      	bcs.n	1926 <__ssputs_r+0x8e>
    1924:	001e      	movs	r6, r3
    1926:	0032      	movs	r2, r6
    1928:	9903      	ldr	r1, [sp, #12]
    192a:	6820      	ldr	r0, [r4, #0]
    192c:	f000 fb57 	bl	1fde <memmove>
    1930:	68a3      	ldr	r3, [r4, #8]
    1932:	2000      	movs	r0, #0
    1934:	1b9b      	subs	r3, r3, r6
    1936:	60a3      	str	r3, [r4, #8]
    1938:	6823      	ldr	r3, [r4, #0]
    193a:	199e      	adds	r6, r3, r6
    193c:	6026      	str	r6, [r4, #0]
    193e:	e7da      	b.n	18f6 <__ssputs_r+0x5e>
    1940:	002a      	movs	r2, r5
    1942:	0038      	movs	r0, r7
    1944:	f000 fb5f 	bl	2006 <_realloc_r>
    1948:	1e06      	subs	r6, r0, #0
    194a:	d1e0      	bne.n	190e <__ssputs_r+0x76>
    194c:	6921      	ldr	r1, [r4, #16]
    194e:	0038      	movs	r0, r7
    1950:	f7ff fefa 	bl	1748 <_free_r>
    1954:	e7c7      	b.n	18e6 <__ssputs_r+0x4e>
    1956:	46c0      	nop			; (mov r8, r8)
    1958:	fffffb7f 	.word	0xfffffb7f

0000195c <_svfiprintf_r>:
    195c:	b5f0      	push	{r4, r5, r6, r7, lr}
    195e:	b09f      	sub	sp, #124	; 0x7c
    1960:	9002      	str	r0, [sp, #8]
    1962:	9305      	str	r3, [sp, #20]
    1964:	898b      	ldrh	r3, [r1, #12]
    1966:	000f      	movs	r7, r1
    1968:	0016      	movs	r6, r2
    196a:	061b      	lsls	r3, r3, #24
    196c:	d511      	bpl.n	1992 <_svfiprintf_r+0x36>
    196e:	690b      	ldr	r3, [r1, #16]
    1970:	2b00      	cmp	r3, #0
    1972:	d10e      	bne.n	1992 <_svfiprintf_r+0x36>
    1974:	2140      	movs	r1, #64	; 0x40
    1976:	f7ff ff31 	bl	17dc <_malloc_r>
    197a:	6038      	str	r0, [r7, #0]
    197c:	6138      	str	r0, [r7, #16]
    197e:	2800      	cmp	r0, #0
    1980:	d105      	bne.n	198e <_svfiprintf_r+0x32>
    1982:	230c      	movs	r3, #12
    1984:	9a02      	ldr	r2, [sp, #8]
    1986:	3801      	subs	r0, #1
    1988:	6013      	str	r3, [r2, #0]
    198a:	b01f      	add	sp, #124	; 0x7c
    198c:	bdf0      	pop	{r4, r5, r6, r7, pc}
    198e:	2340      	movs	r3, #64	; 0x40
    1990:	617b      	str	r3, [r7, #20]
    1992:	2300      	movs	r3, #0
    1994:	ad06      	add	r5, sp, #24
    1996:	616b      	str	r3, [r5, #20]
    1998:	3320      	adds	r3, #32
    199a:	766b      	strb	r3, [r5, #25]
    199c:	3310      	adds	r3, #16
    199e:	76ab      	strb	r3, [r5, #26]
    19a0:	0034      	movs	r4, r6
    19a2:	7823      	ldrb	r3, [r4, #0]
    19a4:	2b00      	cmp	r3, #0
    19a6:	d147      	bne.n	1a38 <_svfiprintf_r+0xdc>
    19a8:	1ba3      	subs	r3, r4, r6
    19aa:	9304      	str	r3, [sp, #16]
    19ac:	d00d      	beq.n	19ca <_svfiprintf_r+0x6e>
    19ae:	1ba3      	subs	r3, r4, r6
    19b0:	0032      	movs	r2, r6
    19b2:	0039      	movs	r1, r7
    19b4:	9802      	ldr	r0, [sp, #8]
    19b6:	f7ff ff6f 	bl	1898 <__ssputs_r>
    19ba:	1c43      	adds	r3, r0, #1
    19bc:	d100      	bne.n	19c0 <_svfiprintf_r+0x64>
    19be:	e0b5      	b.n	1b2c <_svfiprintf_r+0x1d0>
    19c0:	696a      	ldr	r2, [r5, #20]
    19c2:	9b04      	ldr	r3, [sp, #16]
    19c4:	4694      	mov	ip, r2
    19c6:	4463      	add	r3, ip
    19c8:	616b      	str	r3, [r5, #20]
    19ca:	7823      	ldrb	r3, [r4, #0]
    19cc:	2b00      	cmp	r3, #0
    19ce:	d100      	bne.n	19d2 <_svfiprintf_r+0x76>
    19d0:	e0ac      	b.n	1b2c <_svfiprintf_r+0x1d0>
    19d2:	2201      	movs	r2, #1
    19d4:	2300      	movs	r3, #0
    19d6:	4252      	negs	r2, r2
    19d8:	606a      	str	r2, [r5, #4]
    19da:	a902      	add	r1, sp, #8
    19dc:	3254      	adds	r2, #84	; 0x54
    19de:	1852      	adds	r2, r2, r1
    19e0:	3401      	adds	r4, #1
    19e2:	602b      	str	r3, [r5, #0]
    19e4:	60eb      	str	r3, [r5, #12]
    19e6:	60ab      	str	r3, [r5, #8]
    19e8:	7013      	strb	r3, [r2, #0]
    19ea:	65ab      	str	r3, [r5, #88]	; 0x58
    19ec:	4e58      	ldr	r6, [pc, #352]	; (1b50 <_svfiprintf_r+0x1f4>)
    19ee:	2205      	movs	r2, #5
    19f0:	7821      	ldrb	r1, [r4, #0]
    19f2:	0030      	movs	r0, r6
    19f4:	f000 fae8 	bl	1fc8 <memchr>
    19f8:	1c62      	adds	r2, r4, #1
    19fa:	2800      	cmp	r0, #0
    19fc:	d120      	bne.n	1a40 <_svfiprintf_r+0xe4>
    19fe:	6829      	ldr	r1, [r5, #0]
    1a00:	06cb      	lsls	r3, r1, #27
    1a02:	d504      	bpl.n	1a0e <_svfiprintf_r+0xb2>
    1a04:	2353      	movs	r3, #83	; 0x53
    1a06:	ae02      	add	r6, sp, #8
    1a08:	3020      	adds	r0, #32
    1a0a:	199b      	adds	r3, r3, r6
    1a0c:	7018      	strb	r0, [r3, #0]
    1a0e:	070b      	lsls	r3, r1, #28
    1a10:	d504      	bpl.n	1a1c <_svfiprintf_r+0xc0>
    1a12:	2353      	movs	r3, #83	; 0x53
    1a14:	202b      	movs	r0, #43	; 0x2b
    1a16:	ae02      	add	r6, sp, #8
    1a18:	199b      	adds	r3, r3, r6
    1a1a:	7018      	strb	r0, [r3, #0]
    1a1c:	7823      	ldrb	r3, [r4, #0]
    1a1e:	2b2a      	cmp	r3, #42	; 0x2a
    1a20:	d016      	beq.n	1a50 <_svfiprintf_r+0xf4>
    1a22:	2000      	movs	r0, #0
    1a24:	210a      	movs	r1, #10
    1a26:	9b09      	ldr	r3, [sp, #36]	; 0x24
    1a28:	7822      	ldrb	r2, [r4, #0]
    1a2a:	3a30      	subs	r2, #48	; 0x30
    1a2c:	2a09      	cmp	r2, #9
    1a2e:	d955      	bls.n	1adc <_svfiprintf_r+0x180>
    1a30:	2800      	cmp	r0, #0
    1a32:	d015      	beq.n	1a60 <_svfiprintf_r+0x104>
    1a34:	9309      	str	r3, [sp, #36]	; 0x24
    1a36:	e013      	b.n	1a60 <_svfiprintf_r+0x104>
    1a38:	2b25      	cmp	r3, #37	; 0x25
    1a3a:	d0b5      	beq.n	19a8 <_svfiprintf_r+0x4c>
    1a3c:	3401      	adds	r4, #1
    1a3e:	e7b0      	b.n	19a2 <_svfiprintf_r+0x46>
    1a40:	2301      	movs	r3, #1
    1a42:	1b80      	subs	r0, r0, r6
    1a44:	4083      	lsls	r3, r0
    1a46:	6829      	ldr	r1, [r5, #0]
    1a48:	0014      	movs	r4, r2
    1a4a:	430b      	orrs	r3, r1
    1a4c:	602b      	str	r3, [r5, #0]
    1a4e:	e7cd      	b.n	19ec <_svfiprintf_r+0x90>
    1a50:	9b05      	ldr	r3, [sp, #20]
    1a52:	1d18      	adds	r0, r3, #4
    1a54:	681b      	ldr	r3, [r3, #0]
    1a56:	9005      	str	r0, [sp, #20]
    1a58:	2b00      	cmp	r3, #0
    1a5a:	db39      	blt.n	1ad0 <_svfiprintf_r+0x174>
    1a5c:	9309      	str	r3, [sp, #36]	; 0x24
    1a5e:	0014      	movs	r4, r2
    1a60:	7823      	ldrb	r3, [r4, #0]
    1a62:	2b2e      	cmp	r3, #46	; 0x2e
    1a64:	d10b      	bne.n	1a7e <_svfiprintf_r+0x122>
    1a66:	7863      	ldrb	r3, [r4, #1]
    1a68:	1c62      	adds	r2, r4, #1
    1a6a:	2b2a      	cmp	r3, #42	; 0x2a
    1a6c:	d13e      	bne.n	1aec <_svfiprintf_r+0x190>
    1a6e:	9b05      	ldr	r3, [sp, #20]
    1a70:	3402      	adds	r4, #2
    1a72:	1d1a      	adds	r2, r3, #4
    1a74:	681b      	ldr	r3, [r3, #0]
    1a76:	9205      	str	r2, [sp, #20]
    1a78:	2b00      	cmp	r3, #0
    1a7a:	db34      	blt.n	1ae6 <_svfiprintf_r+0x18a>
    1a7c:	9307      	str	r3, [sp, #28]
    1a7e:	4e35      	ldr	r6, [pc, #212]	; (1b54 <_svfiprintf_r+0x1f8>)
    1a80:	7821      	ldrb	r1, [r4, #0]
    1a82:	2203      	movs	r2, #3
    1a84:	0030      	movs	r0, r6
    1a86:	f000 fa9f 	bl	1fc8 <memchr>
    1a8a:	2800      	cmp	r0, #0
    1a8c:	d006      	beq.n	1a9c <_svfiprintf_r+0x140>
    1a8e:	2340      	movs	r3, #64	; 0x40
    1a90:	1b80      	subs	r0, r0, r6
    1a92:	4083      	lsls	r3, r0
    1a94:	682a      	ldr	r2, [r5, #0]
    1a96:	3401      	adds	r4, #1
    1a98:	4313      	orrs	r3, r2
    1a9a:	602b      	str	r3, [r5, #0]
    1a9c:	7821      	ldrb	r1, [r4, #0]
    1a9e:	2206      	movs	r2, #6
    1aa0:	482d      	ldr	r0, [pc, #180]	; (1b58 <_svfiprintf_r+0x1fc>)
    1aa2:	1c66      	adds	r6, r4, #1
    1aa4:	7629      	strb	r1, [r5, #24]
    1aa6:	f000 fa8f 	bl	1fc8 <memchr>
    1aaa:	2800      	cmp	r0, #0
    1aac:	d046      	beq.n	1b3c <_svfiprintf_r+0x1e0>
    1aae:	4b2b      	ldr	r3, [pc, #172]	; (1b5c <_svfiprintf_r+0x200>)
    1ab0:	2b00      	cmp	r3, #0
    1ab2:	d12f      	bne.n	1b14 <_svfiprintf_r+0x1b8>
    1ab4:	6829      	ldr	r1, [r5, #0]
    1ab6:	9b05      	ldr	r3, [sp, #20]
    1ab8:	2207      	movs	r2, #7
    1aba:	05c9      	lsls	r1, r1, #23
    1abc:	d528      	bpl.n	1b10 <_svfiprintf_r+0x1b4>
    1abe:	189b      	adds	r3, r3, r2
    1ac0:	4393      	bics	r3, r2
    1ac2:	3308      	adds	r3, #8
    1ac4:	9305      	str	r3, [sp, #20]
    1ac6:	696b      	ldr	r3, [r5, #20]
    1ac8:	9a03      	ldr	r2, [sp, #12]
    1aca:	189b      	adds	r3, r3, r2
    1acc:	616b      	str	r3, [r5, #20]
    1ace:	e767      	b.n	19a0 <_svfiprintf_r+0x44>
    1ad0:	425b      	negs	r3, r3
    1ad2:	60eb      	str	r3, [r5, #12]
    1ad4:	2302      	movs	r3, #2
    1ad6:	430b      	orrs	r3, r1
    1ad8:	602b      	str	r3, [r5, #0]
    1ada:	e7c0      	b.n	1a5e <_svfiprintf_r+0x102>
    1adc:	434b      	muls	r3, r1
    1ade:	3401      	adds	r4, #1
    1ae0:	189b      	adds	r3, r3, r2
    1ae2:	2001      	movs	r0, #1
    1ae4:	e7a0      	b.n	1a28 <_svfiprintf_r+0xcc>
    1ae6:	2301      	movs	r3, #1
    1ae8:	425b      	negs	r3, r3
    1aea:	e7c7      	b.n	1a7c <_svfiprintf_r+0x120>
    1aec:	2300      	movs	r3, #0
    1aee:	0014      	movs	r4, r2
    1af0:	200a      	movs	r0, #10
    1af2:	001a      	movs	r2, r3
    1af4:	606b      	str	r3, [r5, #4]
    1af6:	7821      	ldrb	r1, [r4, #0]
    1af8:	3930      	subs	r1, #48	; 0x30
    1afa:	2909      	cmp	r1, #9
    1afc:	d903      	bls.n	1b06 <_svfiprintf_r+0x1aa>
    1afe:	2b00      	cmp	r3, #0
    1b00:	d0bd      	beq.n	1a7e <_svfiprintf_r+0x122>
    1b02:	9207      	str	r2, [sp, #28]
    1b04:	e7bb      	b.n	1a7e <_svfiprintf_r+0x122>
    1b06:	4342      	muls	r2, r0
    1b08:	3401      	adds	r4, #1
    1b0a:	1852      	adds	r2, r2, r1
    1b0c:	2301      	movs	r3, #1
    1b0e:	e7f2      	b.n	1af6 <_svfiprintf_r+0x19a>
    1b10:	3307      	adds	r3, #7
    1b12:	e7d5      	b.n	1ac0 <_svfiprintf_r+0x164>
    1b14:	ab05      	add	r3, sp, #20
    1b16:	9300      	str	r3, [sp, #0]
    1b18:	003a      	movs	r2, r7
    1b1a:	4b11      	ldr	r3, [pc, #68]	; (1b60 <_svfiprintf_r+0x204>)
    1b1c:	0029      	movs	r1, r5
    1b1e:	9802      	ldr	r0, [sp, #8]
    1b20:	e000      	b.n	1b24 <_svfiprintf_r+0x1c8>
    1b22:	bf00      	nop
    1b24:	9003      	str	r0, [sp, #12]
    1b26:	9b03      	ldr	r3, [sp, #12]
    1b28:	3301      	adds	r3, #1
    1b2a:	d1cc      	bne.n	1ac6 <_svfiprintf_r+0x16a>
    1b2c:	89bb      	ldrh	r3, [r7, #12]
    1b2e:	980b      	ldr	r0, [sp, #44]	; 0x2c
    1b30:	065b      	lsls	r3, r3, #25
    1b32:	d400      	bmi.n	1b36 <_svfiprintf_r+0x1da>
    1b34:	e729      	b.n	198a <_svfiprintf_r+0x2e>
    1b36:	2001      	movs	r0, #1
    1b38:	4240      	negs	r0, r0
    1b3a:	e726      	b.n	198a <_svfiprintf_r+0x2e>
    1b3c:	ab05      	add	r3, sp, #20
    1b3e:	9300      	str	r3, [sp, #0]
    1b40:	003a      	movs	r2, r7
    1b42:	4b07      	ldr	r3, [pc, #28]	; (1b60 <_svfiprintf_r+0x204>)
    1b44:	0029      	movs	r1, r5
    1b46:	9802      	ldr	r0, [sp, #8]
    1b48:	f000 f87a 	bl	1c40 <_printf_i>
    1b4c:	e7ea      	b.n	1b24 <_svfiprintf_r+0x1c8>
    1b4e:	46c0      	nop			; (mov r8, r8)
    1b50:	00002310 	.word	0x00002310
    1b54:	00002316 	.word	0x00002316
    1b58:	0000231a 	.word	0x0000231a
    1b5c:	00000000 	.word	0x00000000
    1b60:	00001899 	.word	0x00001899

00001b64 <_printf_common>:
    1b64:	b5f7      	push	{r0, r1, r2, r4, r5, r6, r7, lr}
    1b66:	0015      	movs	r5, r2
    1b68:	9301      	str	r3, [sp, #4]
    1b6a:	688a      	ldr	r2, [r1, #8]
    1b6c:	690b      	ldr	r3, [r1, #16]
    1b6e:	9000      	str	r0, [sp, #0]
    1b70:	000c      	movs	r4, r1
    1b72:	4293      	cmp	r3, r2
    1b74:	da00      	bge.n	1b78 <_printf_common+0x14>
    1b76:	0013      	movs	r3, r2
    1b78:	0022      	movs	r2, r4
    1b7a:	602b      	str	r3, [r5, #0]
    1b7c:	3243      	adds	r2, #67	; 0x43
    1b7e:	7812      	ldrb	r2, [r2, #0]
    1b80:	2a00      	cmp	r2, #0
    1b82:	d001      	beq.n	1b88 <_printf_common+0x24>
    1b84:	3301      	adds	r3, #1
    1b86:	602b      	str	r3, [r5, #0]
    1b88:	6823      	ldr	r3, [r4, #0]
    1b8a:	069b      	lsls	r3, r3, #26
    1b8c:	d502      	bpl.n	1b94 <_printf_common+0x30>
    1b8e:	682b      	ldr	r3, [r5, #0]
    1b90:	3302      	adds	r3, #2
    1b92:	602b      	str	r3, [r5, #0]
    1b94:	2706      	movs	r7, #6
    1b96:	6823      	ldr	r3, [r4, #0]
    1b98:	401f      	ands	r7, r3
    1b9a:	d027      	beq.n	1bec <_printf_common+0x88>
    1b9c:	0023      	movs	r3, r4
    1b9e:	3343      	adds	r3, #67	; 0x43
    1ba0:	781b      	ldrb	r3, [r3, #0]
    1ba2:	1e5a      	subs	r2, r3, #1
    1ba4:	4193      	sbcs	r3, r2
    1ba6:	6822      	ldr	r2, [r4, #0]
    1ba8:	0692      	lsls	r2, r2, #26
    1baa:	d430      	bmi.n	1c0e <_printf_common+0xaa>
    1bac:	0022      	movs	r2, r4
    1bae:	9901      	ldr	r1, [sp, #4]
    1bb0:	3243      	adds	r2, #67	; 0x43
    1bb2:	9800      	ldr	r0, [sp, #0]
    1bb4:	9e08      	ldr	r6, [sp, #32]
    1bb6:	47b0      	blx	r6
    1bb8:	1c43      	adds	r3, r0, #1
    1bba:	d025      	beq.n	1c08 <_printf_common+0xa4>
    1bbc:	2306      	movs	r3, #6
    1bbe:	6820      	ldr	r0, [r4, #0]
    1bc0:	682a      	ldr	r2, [r5, #0]
    1bc2:	68e1      	ldr	r1, [r4, #12]
    1bc4:	4003      	ands	r3, r0
    1bc6:	2500      	movs	r5, #0
    1bc8:	2b04      	cmp	r3, #4
    1bca:	d103      	bne.n	1bd4 <_printf_common+0x70>
    1bcc:	1a8d      	subs	r5, r1, r2
    1bce:	43eb      	mvns	r3, r5
    1bd0:	17db      	asrs	r3, r3, #31
    1bd2:	401d      	ands	r5, r3
    1bd4:	68a3      	ldr	r3, [r4, #8]
    1bd6:	6922      	ldr	r2, [r4, #16]
    1bd8:	4293      	cmp	r3, r2
    1bda:	dd01      	ble.n	1be0 <_printf_common+0x7c>
    1bdc:	1a9b      	subs	r3, r3, r2
    1bde:	18ed      	adds	r5, r5, r3
    1be0:	2700      	movs	r7, #0
    1be2:	42bd      	cmp	r5, r7
    1be4:	d120      	bne.n	1c28 <_printf_common+0xc4>
    1be6:	2000      	movs	r0, #0
    1be8:	e010      	b.n	1c0c <_printf_common+0xa8>
    1bea:	3701      	adds	r7, #1
    1bec:	68e3      	ldr	r3, [r4, #12]
    1bee:	682a      	ldr	r2, [r5, #0]
    1bf0:	1a9b      	subs	r3, r3, r2
    1bf2:	429f      	cmp	r7, r3
    1bf4:	dad2      	bge.n	1b9c <_printf_common+0x38>
    1bf6:	0022      	movs	r2, r4
    1bf8:	2301      	movs	r3, #1
    1bfa:	3219      	adds	r2, #25
    1bfc:	9901      	ldr	r1, [sp, #4]
    1bfe:	9800      	ldr	r0, [sp, #0]
    1c00:	9e08      	ldr	r6, [sp, #32]
    1c02:	47b0      	blx	r6
    1c04:	1c43      	adds	r3, r0, #1
    1c06:	d1f0      	bne.n	1bea <_printf_common+0x86>
    1c08:	2001      	movs	r0, #1
    1c0a:	4240      	negs	r0, r0
    1c0c:	bdfe      	pop	{r1, r2, r3, r4, r5, r6, r7, pc}
    1c0e:	2030      	movs	r0, #48	; 0x30
    1c10:	18e1      	adds	r1, r4, r3
    1c12:	3143      	adds	r1, #67	; 0x43
    1c14:	7008      	strb	r0, [r1, #0]
    1c16:	0021      	movs	r1, r4
    1c18:	1c5a      	adds	r2, r3, #1
    1c1a:	3145      	adds	r1, #69	; 0x45
    1c1c:	7809      	ldrb	r1, [r1, #0]
    1c1e:	18a2      	adds	r2, r4, r2
    1c20:	3243      	adds	r2, #67	; 0x43
    1c22:	3302      	adds	r3, #2
    1c24:	7011      	strb	r1, [r2, #0]
    1c26:	e7c1      	b.n	1bac <_printf_common+0x48>
    1c28:	0022      	movs	r2, r4
    1c2a:	2301      	movs	r3, #1
    1c2c:	321a      	adds	r2, #26
    1c2e:	9901      	ldr	r1, [sp, #4]
    1c30:	9800      	ldr	r0, [sp, #0]
    1c32:	9e08      	ldr	r6, [sp, #32]
    1c34:	47b0      	blx	r6
    1c36:	1c43      	adds	r3, r0, #1
    1c38:	d0e6      	beq.n	1c08 <_printf_common+0xa4>
    1c3a:	3701      	adds	r7, #1
    1c3c:	e7d1      	b.n	1be2 <_printf_common+0x7e>
	...

00001c40 <_printf_i>:
    1c40:	b5f0      	push	{r4, r5, r6, r7, lr}
    1c42:	b08b      	sub	sp, #44	; 0x2c
    1c44:	9206      	str	r2, [sp, #24]
    1c46:	000a      	movs	r2, r1
    1c48:	3243      	adds	r2, #67	; 0x43
    1c4a:	9307      	str	r3, [sp, #28]
    1c4c:	9005      	str	r0, [sp, #20]
    1c4e:	9204      	str	r2, [sp, #16]
    1c50:	7e0a      	ldrb	r2, [r1, #24]
    1c52:	000c      	movs	r4, r1
    1c54:	9b10      	ldr	r3, [sp, #64]	; 0x40
    1c56:	2a6e      	cmp	r2, #110	; 0x6e
    1c58:	d100      	bne.n	1c5c <_printf_i+0x1c>
    1c5a:	e08f      	b.n	1d7c <_printf_i+0x13c>
    1c5c:	d817      	bhi.n	1c8e <_printf_i+0x4e>
    1c5e:	2a63      	cmp	r2, #99	; 0x63
    1c60:	d02c      	beq.n	1cbc <_printf_i+0x7c>
    1c62:	d808      	bhi.n	1c76 <_printf_i+0x36>
    1c64:	2a00      	cmp	r2, #0
    1c66:	d100      	bne.n	1c6a <_printf_i+0x2a>
    1c68:	e099      	b.n	1d9e <_printf_i+0x15e>
    1c6a:	2a58      	cmp	r2, #88	; 0x58
    1c6c:	d054      	beq.n	1d18 <_printf_i+0xd8>
    1c6e:	0026      	movs	r6, r4
    1c70:	3642      	adds	r6, #66	; 0x42
    1c72:	7032      	strb	r2, [r6, #0]
    1c74:	e029      	b.n	1cca <_printf_i+0x8a>
    1c76:	2a64      	cmp	r2, #100	; 0x64
    1c78:	d001      	beq.n	1c7e <_printf_i+0x3e>
    1c7a:	2a69      	cmp	r2, #105	; 0x69
    1c7c:	d1f7      	bne.n	1c6e <_printf_i+0x2e>
    1c7e:	6821      	ldr	r1, [r4, #0]
    1c80:	681a      	ldr	r2, [r3, #0]
    1c82:	0608      	lsls	r0, r1, #24
    1c84:	d523      	bpl.n	1cce <_printf_i+0x8e>
    1c86:	1d11      	adds	r1, r2, #4
    1c88:	6019      	str	r1, [r3, #0]
    1c8a:	6815      	ldr	r5, [r2, #0]
    1c8c:	e025      	b.n	1cda <_printf_i+0x9a>
    1c8e:	2a73      	cmp	r2, #115	; 0x73
    1c90:	d100      	bne.n	1c94 <_printf_i+0x54>
    1c92:	e088      	b.n	1da6 <_printf_i+0x166>
    1c94:	d808      	bhi.n	1ca8 <_printf_i+0x68>
    1c96:	2a6f      	cmp	r2, #111	; 0x6f
    1c98:	d029      	beq.n	1cee <_printf_i+0xae>
    1c9a:	2a70      	cmp	r2, #112	; 0x70
    1c9c:	d1e7      	bne.n	1c6e <_printf_i+0x2e>
    1c9e:	2220      	movs	r2, #32
    1ca0:	6809      	ldr	r1, [r1, #0]
    1ca2:	430a      	orrs	r2, r1
    1ca4:	6022      	str	r2, [r4, #0]
    1ca6:	e003      	b.n	1cb0 <_printf_i+0x70>
    1ca8:	2a75      	cmp	r2, #117	; 0x75
    1caa:	d020      	beq.n	1cee <_printf_i+0xae>
    1cac:	2a78      	cmp	r2, #120	; 0x78
    1cae:	d1de      	bne.n	1c6e <_printf_i+0x2e>
    1cb0:	0022      	movs	r2, r4
    1cb2:	2178      	movs	r1, #120	; 0x78
    1cb4:	3245      	adds	r2, #69	; 0x45
    1cb6:	7011      	strb	r1, [r2, #0]
    1cb8:	4a6c      	ldr	r2, [pc, #432]	; (1e6c <_printf_i+0x22c>)
    1cba:	e030      	b.n	1d1e <_printf_i+0xde>
    1cbc:	000e      	movs	r6, r1
    1cbe:	681a      	ldr	r2, [r3, #0]
    1cc0:	3642      	adds	r6, #66	; 0x42
    1cc2:	1d11      	adds	r1, r2, #4
    1cc4:	6019      	str	r1, [r3, #0]
    1cc6:	6813      	ldr	r3, [r2, #0]
    1cc8:	7033      	strb	r3, [r6, #0]
    1cca:	2301      	movs	r3, #1
    1ccc:	e079      	b.n	1dc2 <_printf_i+0x182>
    1cce:	0649      	lsls	r1, r1, #25
    1cd0:	d5d9      	bpl.n	1c86 <_printf_i+0x46>
    1cd2:	1d11      	adds	r1, r2, #4
    1cd4:	6019      	str	r1, [r3, #0]
    1cd6:	2300      	movs	r3, #0
    1cd8:	5ed5      	ldrsh	r5, [r2, r3]
    1cda:	2d00      	cmp	r5, #0
    1cdc:	da03      	bge.n	1ce6 <_printf_i+0xa6>
    1cde:	232d      	movs	r3, #45	; 0x2d
    1ce0:	9a04      	ldr	r2, [sp, #16]
    1ce2:	426d      	negs	r5, r5
    1ce4:	7013      	strb	r3, [r2, #0]
    1ce6:	4b62      	ldr	r3, [pc, #392]	; (1e70 <_printf_i+0x230>)
    1ce8:	270a      	movs	r7, #10
    1cea:	9303      	str	r3, [sp, #12]
    1cec:	e02f      	b.n	1d4e <_printf_i+0x10e>
    1cee:	6820      	ldr	r0, [r4, #0]
    1cf0:	6819      	ldr	r1, [r3, #0]
    1cf2:	0605      	lsls	r5, r0, #24
    1cf4:	d503      	bpl.n	1cfe <_printf_i+0xbe>
    1cf6:	1d08      	adds	r0, r1, #4
    1cf8:	6018      	str	r0, [r3, #0]
    1cfa:	680d      	ldr	r5, [r1, #0]
    1cfc:	e005      	b.n	1d0a <_printf_i+0xca>
    1cfe:	0640      	lsls	r0, r0, #25
    1d00:	d5f9      	bpl.n	1cf6 <_printf_i+0xb6>
    1d02:	680d      	ldr	r5, [r1, #0]
    1d04:	1d08      	adds	r0, r1, #4
    1d06:	6018      	str	r0, [r3, #0]
    1d08:	b2ad      	uxth	r5, r5
    1d0a:	4b59      	ldr	r3, [pc, #356]	; (1e70 <_printf_i+0x230>)
    1d0c:	2708      	movs	r7, #8
    1d0e:	9303      	str	r3, [sp, #12]
    1d10:	2a6f      	cmp	r2, #111	; 0x6f
    1d12:	d018      	beq.n	1d46 <_printf_i+0x106>
    1d14:	270a      	movs	r7, #10
    1d16:	e016      	b.n	1d46 <_printf_i+0x106>
    1d18:	3145      	adds	r1, #69	; 0x45
    1d1a:	700a      	strb	r2, [r1, #0]
    1d1c:	4a54      	ldr	r2, [pc, #336]	; (1e70 <_printf_i+0x230>)
    1d1e:	9203      	str	r2, [sp, #12]
    1d20:	681a      	ldr	r2, [r3, #0]
    1d22:	6821      	ldr	r1, [r4, #0]
    1d24:	1d10      	adds	r0, r2, #4
    1d26:	6018      	str	r0, [r3, #0]
    1d28:	6815      	ldr	r5, [r2, #0]
    1d2a:	0608      	lsls	r0, r1, #24
    1d2c:	d522      	bpl.n	1d74 <_printf_i+0x134>
    1d2e:	07cb      	lsls	r3, r1, #31
    1d30:	d502      	bpl.n	1d38 <_printf_i+0xf8>
    1d32:	2320      	movs	r3, #32
    1d34:	4319      	orrs	r1, r3
    1d36:	6021      	str	r1, [r4, #0]
    1d38:	2710      	movs	r7, #16
    1d3a:	2d00      	cmp	r5, #0
    1d3c:	d103      	bne.n	1d46 <_printf_i+0x106>
    1d3e:	2320      	movs	r3, #32
    1d40:	6822      	ldr	r2, [r4, #0]
    1d42:	439a      	bics	r2, r3
    1d44:	6022      	str	r2, [r4, #0]
    1d46:	0023      	movs	r3, r4
    1d48:	2200      	movs	r2, #0
    1d4a:	3343      	adds	r3, #67	; 0x43
    1d4c:	701a      	strb	r2, [r3, #0]
    1d4e:	6863      	ldr	r3, [r4, #4]
    1d50:	60a3      	str	r3, [r4, #8]
    1d52:	2b00      	cmp	r3, #0
    1d54:	db5c      	blt.n	1e10 <_printf_i+0x1d0>
    1d56:	2204      	movs	r2, #4
    1d58:	6821      	ldr	r1, [r4, #0]
    1d5a:	4391      	bics	r1, r2
    1d5c:	6021      	str	r1, [r4, #0]
    1d5e:	2d00      	cmp	r5, #0
    1d60:	d158      	bne.n	1e14 <_printf_i+0x1d4>
    1d62:	9e04      	ldr	r6, [sp, #16]
    1d64:	2b00      	cmp	r3, #0
    1d66:	d064      	beq.n	1e32 <_printf_i+0x1f2>
    1d68:	0026      	movs	r6, r4
    1d6a:	9b03      	ldr	r3, [sp, #12]
    1d6c:	3642      	adds	r6, #66	; 0x42
    1d6e:	781b      	ldrb	r3, [r3, #0]
    1d70:	7033      	strb	r3, [r6, #0]
    1d72:	e05e      	b.n	1e32 <_printf_i+0x1f2>
    1d74:	0648      	lsls	r0, r1, #25
    1d76:	d5da      	bpl.n	1d2e <_printf_i+0xee>
    1d78:	b2ad      	uxth	r5, r5
    1d7a:	e7d8      	b.n	1d2e <_printf_i+0xee>
    1d7c:	6809      	ldr	r1, [r1, #0]
    1d7e:	681a      	ldr	r2, [r3, #0]
    1d80:	0608      	lsls	r0, r1, #24
    1d82:	d505      	bpl.n	1d90 <_printf_i+0x150>
    1d84:	1d11      	adds	r1, r2, #4
    1d86:	6019      	str	r1, [r3, #0]
    1d88:	6813      	ldr	r3, [r2, #0]
    1d8a:	6962      	ldr	r2, [r4, #20]
    1d8c:	601a      	str	r2, [r3, #0]
    1d8e:	e006      	b.n	1d9e <_printf_i+0x15e>
    1d90:	0649      	lsls	r1, r1, #25
    1d92:	d5f7      	bpl.n	1d84 <_printf_i+0x144>
    1d94:	1d11      	adds	r1, r2, #4
    1d96:	6019      	str	r1, [r3, #0]
    1d98:	6813      	ldr	r3, [r2, #0]
    1d9a:	8aa2      	ldrh	r2, [r4, #20]
    1d9c:	801a      	strh	r2, [r3, #0]
    1d9e:	2300      	movs	r3, #0
    1da0:	9e04      	ldr	r6, [sp, #16]
    1da2:	6123      	str	r3, [r4, #16]
    1da4:	e054      	b.n	1e50 <_printf_i+0x210>
    1da6:	681a      	ldr	r2, [r3, #0]
    1da8:	1d11      	adds	r1, r2, #4
    1daa:	6019      	str	r1, [r3, #0]
    1dac:	6816      	ldr	r6, [r2, #0]
    1dae:	2100      	movs	r1, #0
    1db0:	6862      	ldr	r2, [r4, #4]
    1db2:	0030      	movs	r0, r6
    1db4:	f000 f908 	bl	1fc8 <memchr>
    1db8:	2800      	cmp	r0, #0
    1dba:	d001      	beq.n	1dc0 <_printf_i+0x180>
    1dbc:	1b80      	subs	r0, r0, r6
    1dbe:	6060      	str	r0, [r4, #4]
    1dc0:	6863      	ldr	r3, [r4, #4]
    1dc2:	6123      	str	r3, [r4, #16]
    1dc4:	2300      	movs	r3, #0
    1dc6:	9a04      	ldr	r2, [sp, #16]
    1dc8:	7013      	strb	r3, [r2, #0]
    1dca:	e041      	b.n	1e50 <_printf_i+0x210>
    1dcc:	6923      	ldr	r3, [r4, #16]
    1dce:	0032      	movs	r2, r6
    1dd0:	9906      	ldr	r1, [sp, #24]
    1dd2:	9805      	ldr	r0, [sp, #20]
    1dd4:	9d07      	ldr	r5, [sp, #28]
    1dd6:	47a8      	blx	r5
    1dd8:	1c43      	adds	r3, r0, #1
    1dda:	d043      	beq.n	1e64 <_printf_i+0x224>
    1ddc:	6823      	ldr	r3, [r4, #0]
    1dde:	2500      	movs	r5, #0
    1de0:	079b      	lsls	r3, r3, #30
    1de2:	d40f      	bmi.n	1e04 <_printf_i+0x1c4>
    1de4:	9b09      	ldr	r3, [sp, #36]	; 0x24
    1de6:	68e0      	ldr	r0, [r4, #12]
    1de8:	4298      	cmp	r0, r3
    1dea:	da3d      	bge.n	1e68 <_printf_i+0x228>
    1dec:	0018      	movs	r0, r3
    1dee:	e03b      	b.n	1e68 <_printf_i+0x228>
    1df0:	0022      	movs	r2, r4
    1df2:	2301      	movs	r3, #1
    1df4:	3219      	adds	r2, #25
    1df6:	9906      	ldr	r1, [sp, #24]
    1df8:	9805      	ldr	r0, [sp, #20]
    1dfa:	9e07      	ldr	r6, [sp, #28]
    1dfc:	47b0      	blx	r6
    1dfe:	1c43      	adds	r3, r0, #1
    1e00:	d030      	beq.n	1e64 <_printf_i+0x224>
    1e02:	3501      	adds	r5, #1
    1e04:	68e3      	ldr	r3, [r4, #12]
    1e06:	9a09      	ldr	r2, [sp, #36]	; 0x24
    1e08:	1a9b      	subs	r3, r3, r2
    1e0a:	429d      	cmp	r5, r3
    1e0c:	dbf0      	blt.n	1df0 <_printf_i+0x1b0>
    1e0e:	e7e9      	b.n	1de4 <_printf_i+0x1a4>
    1e10:	2d00      	cmp	r5, #0
    1e12:	d0a9      	beq.n	1d68 <_printf_i+0x128>
    1e14:	9e04      	ldr	r6, [sp, #16]
    1e16:	0028      	movs	r0, r5
    1e18:	0039      	movs	r1, r7
    1e1a:	f7fe fd27 	bl	86c <__aeabi_uidivmod>
    1e1e:	9b03      	ldr	r3, [sp, #12]
    1e20:	3e01      	subs	r6, #1
    1e22:	5c5b      	ldrb	r3, [r3, r1]
    1e24:	0028      	movs	r0, r5
    1e26:	7033      	strb	r3, [r6, #0]
    1e28:	0039      	movs	r1, r7
    1e2a:	f7fe fd04 	bl	836 <__aeabi_uidiv>
    1e2e:	1e05      	subs	r5, r0, #0
    1e30:	d1f1      	bne.n	1e16 <_printf_i+0x1d6>
    1e32:	2f08      	cmp	r7, #8
    1e34:	d109      	bne.n	1e4a <_printf_i+0x20a>
    1e36:	6823      	ldr	r3, [r4, #0]
    1e38:	07db      	lsls	r3, r3, #31
    1e3a:	d506      	bpl.n	1e4a <_printf_i+0x20a>
    1e3c:	6863      	ldr	r3, [r4, #4]
    1e3e:	6922      	ldr	r2, [r4, #16]
    1e40:	4293      	cmp	r3, r2
    1e42:	dc02      	bgt.n	1e4a <_printf_i+0x20a>
    1e44:	2330      	movs	r3, #48	; 0x30
    1e46:	3e01      	subs	r6, #1
    1e48:	7033      	strb	r3, [r6, #0]
    1e4a:	9b04      	ldr	r3, [sp, #16]
    1e4c:	1b9b      	subs	r3, r3, r6
    1e4e:	6123      	str	r3, [r4, #16]
    1e50:	9b07      	ldr	r3, [sp, #28]
    1e52:	aa09      	add	r2, sp, #36	; 0x24
    1e54:	9300      	str	r3, [sp, #0]
    1e56:	0021      	movs	r1, r4
    1e58:	9b06      	ldr	r3, [sp, #24]
    1e5a:	9805      	ldr	r0, [sp, #20]
    1e5c:	f7ff fe82 	bl	1b64 <_printf_common>
    1e60:	1c43      	adds	r3, r0, #1
    1e62:	d1b3      	bne.n	1dcc <_printf_i+0x18c>
    1e64:	2001      	movs	r0, #1
    1e66:	4240      	negs	r0, r0
    1e68:	b00b      	add	sp, #44	; 0x2c
    1e6a:	bdf0      	pop	{r4, r5, r6, r7, pc}
    1e6c:	00002332 	.word	0x00002332
    1e70:	00002321 	.word	0x00002321

00001e74 <_sbrk_r>:
    1e74:	2300      	movs	r3, #0
    1e76:	b570      	push	{r4, r5, r6, lr}
    1e78:	4c06      	ldr	r4, [pc, #24]	; (1e94 <_sbrk_r+0x20>)
    1e7a:	0005      	movs	r5, r0
    1e7c:	0008      	movs	r0, r1
    1e7e:	6023      	str	r3, [r4, #0]
    1e80:	f7fe fbd6 	bl	630 <_sbrk>
    1e84:	1c43      	adds	r3, r0, #1
    1e86:	d103      	bne.n	1e90 <_sbrk_r+0x1c>
    1e88:	6823      	ldr	r3, [r4, #0]
    1e8a:	2b00      	cmp	r3, #0
    1e8c:	d000      	beq.n	1e90 <_sbrk_r+0x1c>
    1e8e:	602b      	str	r3, [r5, #0]
    1e90:	bd70      	pop	{r4, r5, r6, pc}
    1e92:	46c0      	nop			; (mov r8, r8)
    1e94:	20000570 	.word	0x20000570

00001e98 <__sread>:
    1e98:	b570      	push	{r4, r5, r6, lr}
    1e9a:	000c      	movs	r4, r1
    1e9c:	250e      	movs	r5, #14
    1e9e:	5f49      	ldrsh	r1, [r1, r5]
    1ea0:	f000 f8d8 	bl	2054 <_read_r>
    1ea4:	2800      	cmp	r0, #0
    1ea6:	db03      	blt.n	1eb0 <__sread+0x18>
    1ea8:	6d63      	ldr	r3, [r4, #84]	; 0x54
    1eaa:	181b      	adds	r3, r3, r0
    1eac:	6563      	str	r3, [r4, #84]	; 0x54
    1eae:	bd70      	pop	{r4, r5, r6, pc}
    1eb0:	89a3      	ldrh	r3, [r4, #12]
    1eb2:	4a02      	ldr	r2, [pc, #8]	; (1ebc <__sread+0x24>)
    1eb4:	4013      	ands	r3, r2
    1eb6:	81a3      	strh	r3, [r4, #12]
    1eb8:	e7f9      	b.n	1eae <__sread+0x16>
    1eba:	46c0      	nop			; (mov r8, r8)
    1ebc:	ffffefff 	.word	0xffffefff

00001ec0 <__swrite>:
    1ec0:	b5f8      	push	{r3, r4, r5, r6, r7, lr}
    1ec2:	001f      	movs	r7, r3
    1ec4:	898b      	ldrh	r3, [r1, #12]
    1ec6:	0005      	movs	r5, r0
    1ec8:	000c      	movs	r4, r1
    1eca:	0016      	movs	r6, r2
    1ecc:	05db      	lsls	r3, r3, #23
    1ece:	d505      	bpl.n	1edc <__swrite+0x1c>
    1ed0:	230e      	movs	r3, #14
    1ed2:	5ec9      	ldrsh	r1, [r1, r3]
    1ed4:	2200      	movs	r2, #0
    1ed6:	2302      	movs	r3, #2
    1ed8:	f000 f862 	bl	1fa0 <_lseek_r>
    1edc:	89a3      	ldrh	r3, [r4, #12]
    1ede:	4a05      	ldr	r2, [pc, #20]	; (1ef4 <__swrite+0x34>)
    1ee0:	0028      	movs	r0, r5
    1ee2:	4013      	ands	r3, r2
    1ee4:	81a3      	strh	r3, [r4, #12]
    1ee6:	0032      	movs	r2, r6
    1ee8:	230e      	movs	r3, #14
    1eea:	5ee1      	ldrsh	r1, [r4, r3]
    1eec:	003b      	movs	r3, r7
    1eee:	f000 f81f 	bl	1f30 <_write_r>
    1ef2:	bdf8      	pop	{r3, r4, r5, r6, r7, pc}
    1ef4:	ffffefff 	.word	0xffffefff

00001ef8 <__sseek>:
    1ef8:	b570      	push	{r4, r5, r6, lr}
    1efa:	000c      	movs	r4, r1
    1efc:	250e      	movs	r5, #14
    1efe:	5f49      	ldrsh	r1, [r1, r5]
    1f00:	f000 f84e 	bl	1fa0 <_lseek_r>
    1f04:	89a3      	ldrh	r3, [r4, #12]
    1f06:	1c42      	adds	r2, r0, #1
    1f08:	d103      	bne.n	1f12 <__sseek+0x1a>
    1f0a:	4a05      	ldr	r2, [pc, #20]	; (1f20 <__sseek+0x28>)
    1f0c:	4013      	ands	r3, r2
    1f0e:	81a3      	strh	r3, [r4, #12]
    1f10:	bd70      	pop	{r4, r5, r6, pc}
    1f12:	2280      	movs	r2, #128	; 0x80
    1f14:	0152      	lsls	r2, r2, #5
    1f16:	4313      	orrs	r3, r2
    1f18:	81a3      	strh	r3, [r4, #12]
    1f1a:	6560      	str	r0, [r4, #84]	; 0x54
    1f1c:	e7f8      	b.n	1f10 <__sseek+0x18>
    1f1e:	46c0      	nop			; (mov r8, r8)
    1f20:	ffffefff 	.word	0xffffefff

00001f24 <__sclose>:
    1f24:	b510      	push	{r4, lr}
    1f26:	230e      	movs	r3, #14
    1f28:	5ec9      	ldrsh	r1, [r1, r3]
    1f2a:	f000 f815 	bl	1f58 <_close_r>
    1f2e:	bd10      	pop	{r4, pc}

00001f30 <_write_r>:
    1f30:	b570      	push	{r4, r5, r6, lr}
    1f32:	0005      	movs	r5, r0
    1f34:	0008      	movs	r0, r1
    1f36:	0011      	movs	r1, r2
    1f38:	2200      	movs	r2, #0
    1f3a:	4c06      	ldr	r4, [pc, #24]	; (1f54 <_write_r+0x24>)
    1f3c:	6022      	str	r2, [r4, #0]
    1f3e:	001a      	movs	r2, r3
    1f40:	f7ff f898 	bl	1074 <_write>
    1f44:	1c43      	adds	r3, r0, #1
    1f46:	d103      	bne.n	1f50 <_write_r+0x20>
    1f48:	6823      	ldr	r3, [r4, #0]
    1f4a:	2b00      	cmp	r3, #0
    1f4c:	d000      	beq.n	1f50 <_write_r+0x20>
    1f4e:	602b      	str	r3, [r5, #0]
    1f50:	bd70      	pop	{r4, r5, r6, pc}
    1f52:	46c0      	nop			; (mov r8, r8)
    1f54:	20000570 	.word	0x20000570

00001f58 <_close_r>:
    1f58:	2300      	movs	r3, #0
    1f5a:	b570      	push	{r4, r5, r6, lr}
    1f5c:	4c06      	ldr	r4, [pc, #24]	; (1f78 <_close_r+0x20>)
    1f5e:	0005      	movs	r5, r0
    1f60:	0008      	movs	r0, r1
    1f62:	6023      	str	r3, [r4, #0]
    1f64:	f7fe fb76 	bl	654 <_close>
    1f68:	1c43      	adds	r3, r0, #1
    1f6a:	d103      	bne.n	1f74 <_close_r+0x1c>
    1f6c:	6823      	ldr	r3, [r4, #0]
    1f6e:	2b00      	cmp	r3, #0
    1f70:	d000      	beq.n	1f74 <_close_r+0x1c>
    1f72:	602b      	str	r3, [r5, #0]
    1f74:	bd70      	pop	{r4, r5, r6, pc}
    1f76:	46c0      	nop			; (mov r8, r8)
    1f78:	20000570 	.word	0x20000570

00001f7c <_fstat_r>:
    1f7c:	2300      	movs	r3, #0
    1f7e:	b570      	push	{r4, r5, r6, lr}
    1f80:	4c06      	ldr	r4, [pc, #24]	; (1f9c <_fstat_r+0x20>)
    1f82:	0005      	movs	r5, r0
    1f84:	0008      	movs	r0, r1
    1f86:	0011      	movs	r1, r2
    1f88:	6023      	str	r3, [r4, #0]
    1f8a:	f7fe fb66 	bl	65a <_fstat>
    1f8e:	1c43      	adds	r3, r0, #1
    1f90:	d103      	bne.n	1f9a <_fstat_r+0x1e>
    1f92:	6823      	ldr	r3, [r4, #0]
    1f94:	2b00      	cmp	r3, #0
    1f96:	d000      	beq.n	1f9a <_fstat_r+0x1e>
    1f98:	602b      	str	r3, [r5, #0]
    1f9a:	bd70      	pop	{r4, r5, r6, pc}
    1f9c:	20000570 	.word	0x20000570

00001fa0 <_lseek_r>:
    1fa0:	b570      	push	{r4, r5, r6, lr}
    1fa2:	0005      	movs	r5, r0
    1fa4:	0008      	movs	r0, r1
    1fa6:	0011      	movs	r1, r2
    1fa8:	2200      	movs	r2, #0
    1faa:	4c06      	ldr	r4, [pc, #24]	; (1fc4 <_lseek_r+0x24>)
    1fac:	6022      	str	r2, [r4, #0]
    1fae:	001a      	movs	r2, r3
    1fb0:	f7fe fb58 	bl	664 <_lseek>
    1fb4:	1c43      	adds	r3, r0, #1
    1fb6:	d103      	bne.n	1fc0 <_lseek_r+0x20>
    1fb8:	6823      	ldr	r3, [r4, #0]
    1fba:	2b00      	cmp	r3, #0
    1fbc:	d000      	beq.n	1fc0 <_lseek_r+0x20>
    1fbe:	602b      	str	r3, [r5, #0]
    1fc0:	bd70      	pop	{r4, r5, r6, pc}
    1fc2:	46c0      	nop			; (mov r8, r8)
    1fc4:	20000570 	.word	0x20000570

00001fc8 <memchr>:
    1fc8:	b2c9      	uxtb	r1, r1
    1fca:	1882      	adds	r2, r0, r2
    1fcc:	4290      	cmp	r0, r2
    1fce:	d101      	bne.n	1fd4 <memchr+0xc>
    1fd0:	2000      	movs	r0, #0
    1fd2:	4770      	bx	lr
    1fd4:	7803      	ldrb	r3, [r0, #0]
    1fd6:	428b      	cmp	r3, r1
    1fd8:	d0fb      	beq.n	1fd2 <memchr+0xa>
    1fda:	3001      	adds	r0, #1
    1fdc:	e7f6      	b.n	1fcc <memchr+0x4>

00001fde <memmove>:
    1fde:	b510      	push	{r4, lr}
    1fe0:	4288      	cmp	r0, r1
    1fe2:	d902      	bls.n	1fea <memmove+0xc>
    1fe4:	188b      	adds	r3, r1, r2
    1fe6:	4298      	cmp	r0, r3
    1fe8:	d308      	bcc.n	1ffc <memmove+0x1e>
    1fea:	2300      	movs	r3, #0
    1fec:	429a      	cmp	r2, r3
    1fee:	d007      	beq.n	2000 <STACK_SIZE>
    1ff0:	5ccc      	ldrb	r4, [r1, r3]
    1ff2:	54c4      	strb	r4, [r0, r3]
    1ff4:	3301      	adds	r3, #1
    1ff6:	e7f9      	b.n	1fec <memmove+0xe>
    1ff8:	5c8b      	ldrb	r3, [r1, r2]
    1ffa:	5483      	strb	r3, [r0, r2]
    1ffc:	3a01      	subs	r2, #1
    1ffe:	d2fb      	bcs.n	1ff8 <memmove+0x1a>
    2000:	bd10      	pop	{r4, pc}

00002002 <__malloc_lock>:
    2002:	4770      	bx	lr

00002004 <__malloc_unlock>:
    2004:	4770      	bx	lr

00002006 <_realloc_r>:
    2006:	b5f8      	push	{r3, r4, r5, r6, r7, lr}
    2008:	0007      	movs	r7, r0
    200a:	000d      	movs	r5, r1
    200c:	0016      	movs	r6, r2
    200e:	2900      	cmp	r1, #0
    2010:	d105      	bne.n	201e <_realloc_r+0x18>
    2012:	0011      	movs	r1, r2
    2014:	f7ff fbe2 	bl	17dc <_malloc_r>
    2018:	0004      	movs	r4, r0
    201a:	0020      	movs	r0, r4
    201c:	bdf8      	pop	{r3, r4, r5, r6, r7, pc}
    201e:	2a00      	cmp	r2, #0
    2020:	d103      	bne.n	202a <_realloc_r+0x24>
    2022:	f7ff fb91 	bl	1748 <_free_r>
    2026:	0034      	movs	r4, r6
    2028:	e7f7      	b.n	201a <_realloc_r+0x14>
    202a:	f000 f827 	bl	207c <_malloc_usable_size_r>
    202e:	002c      	movs	r4, r5
    2030:	4286      	cmp	r6, r0
    2032:	d9f2      	bls.n	201a <_realloc_r+0x14>
    2034:	0031      	movs	r1, r6
    2036:	0038      	movs	r0, r7
    2038:	f7ff fbd0 	bl	17dc <_malloc_r>
    203c:	1e04      	subs	r4, r0, #0
    203e:	d0ec      	beq.n	201a <_realloc_r+0x14>
    2040:	0029      	movs	r1, r5
    2042:	0032      	movs	r2, r6
    2044:	f7ff f8b8 	bl	11b8 <memcpy>
    2048:	0029      	movs	r1, r5
    204a:	0038      	movs	r0, r7
    204c:	f7ff fb7c 	bl	1748 <_free_r>
    2050:	e7e3      	b.n	201a <_realloc_r+0x14>
	...

00002054 <_read_r>:
    2054:	b570      	push	{r4, r5, r6, lr}
    2056:	0005      	movs	r5, r0
    2058:	0008      	movs	r0, r1
    205a:	0011      	movs	r1, r2
    205c:	2200      	movs	r2, #0
    205e:	4c06      	ldr	r4, [pc, #24]	; (2078 <_read_r+0x24>)
    2060:	6022      	str	r2, [r4, #0]
    2062:	001a      	movs	r2, r3
    2064:	f7fe fff2 	bl	104c <_read>
    2068:	1c43      	adds	r3, r0, #1
    206a:	d103      	bne.n	2074 <_read_r+0x20>
    206c:	6823      	ldr	r3, [r4, #0]
    206e:	2b00      	cmp	r3, #0
    2070:	d000      	beq.n	2074 <_read_r+0x20>
    2072:	602b      	str	r3, [r5, #0]
    2074:	bd70      	pop	{r4, r5, r6, pc}
    2076:	46c0      	nop			; (mov r8, r8)
    2078:	20000570 	.word	0x20000570

0000207c <_malloc_usable_size_r>:
    207c:	1f0b      	subs	r3, r1, #4
    207e:	681b      	ldr	r3, [r3, #0]
    2080:	1f18      	subs	r0, r3, #4
    2082:	2b00      	cmp	r3, #0
    2084:	da01      	bge.n	208a <_malloc_usable_size_r+0xe>
    2086:	580b      	ldr	r3, [r1, r0]
    2088:	18c0      	adds	r0, r0, r3
    208a:	4770      	bx	lr
    208c:	682f2e2e 	.word	0x682f2e2e
    2090:	732f6c61 	.word	0x732f6c61
    2094:	682f6372 	.word	0x682f6372
    2098:	635f6c61 	.word	0x635f6c61
    209c:	615f6e61 	.word	0x615f6e61
    20a0:	636e7973 	.word	0x636e7973
    20a4:	0000632e 	.word	0x0000632e
    20a8:	682f2e2e 	.word	0x682f2e2e
    20ac:	732f6c61 	.word	0x732f6c61
    20b0:	682f6372 	.word	0x682f6372
    20b4:	665f6c61 	.word	0x665f6c61
    20b8:	6873616c 	.word	0x6873616c
    20bc:	0000632e 	.word	0x0000632e
    20c0:	682f2e2e 	.word	0x682f2e2e
    20c4:	732f6c61 	.word	0x732f6c61
    20c8:	682f6372 	.word	0x682f6372
    20cc:	695f6c61 	.word	0x695f6c61
    20d0:	00632e6f 	.word	0x00632e6f
    20d4:	682f2e2e 	.word	0x682f2e2e
    20d8:	732f6c61 	.word	0x732f6c61
    20dc:	682f6372 	.word	0x682f6372
    20e0:	755f6c61 	.word	0x755f6c61
    20e4:	74726173 	.word	0x74726173
    20e8:	6e79735f 	.word	0x6e79735f
    20ec:	00632e63 	.word	0x00632e63
    20f0:	682f2e2e 	.word	0x682f2e2e
    20f4:	6e2f6c70 	.word	0x6e2f6c70
    20f8:	74636d76 	.word	0x74636d76
    20fc:	682f6c72 	.word	0x682f6c72
    2100:	6e5f6c70 	.word	0x6e5f6c70
    2104:	74636d76 	.word	0x74636d76
    2108:	632e6c72 	.word	0x632e6c72
    210c:	00000000 	.word	0x00000000
    2110:	42000400 	.word	0x42000400
    2114:	42000800 	.word	0x42000800
    2118:	42000c00 	.word	0x42000c00
    211c:	42001000 	.word	0x42001000
    2120:	42001400 	.word	0x42001400
    2124:	42001800 	.word	0x42001800
    2128:	43000000 	.word	0x43000000
    212c:	43000400 	.word	0x43000400

00002130 <_usarts>:
    2130:	00000004 40310004 00030000 0000f62b     ......1@....+...
    2140:	00000000                                ....

00002144 <_i2cms>:
	...

0000215c <_i2css>:
	...

0000216c <sercomspi_regs>:
	...
    2180:	682f2e2e 732f6c70 6f637265 70682f6d     ../hpl/sercom/hp
    2190:	65735f6c 6d6f6372 0000632e 00007825     l_sercom.c..%x..

000021a0 <_global_impure_ptr>:
    21a0:	2000001c 4f500043 00584953 2000002e              ... C.POSIX...

000021ae <_ctype_>:
    21ae:	20202000 20202020 28282020 20282828     .         ((((( 
    21be:	20202020 20202020 20202020 20202020                     
    21ce:	10108820 10101010 10101010 10101010      ...............
    21de:	04040410 04040404 10040404 10101010     ................
    21ee:	41411010 41414141 01010101 01010101     ..AAAAAA........
    21fe:	01010101 01010101 01010101 10101010     ................
    220e:	42421010 42424242 02020202 02020202     ..BBBBBB........
    221e:	02020202 02020202 02020202 10101010     ................
    222e:	00000020 00000000 00000000 00000000      ...............
	...

000022b0 <__sf_fake_stderr>:
	...

000022d0 <__sf_fake_stdin>:
	...

000022f0 <__sf_fake_stdout>:
	...
    2310:	2b302d23 6c680020 6665004c 47464567     #-0+ .hlL.efgEFG
    2320:	32313000 36353433 41393837 45444342     .0123456789ABCDE
    2330:	31300046 35343332 39383736 64636261     F.0123456789abcd
    2340:	00006665                                ef..

00002344 <_init>:
    2344:	b5f8      	push	{r3, r4, r5, r6, r7, lr}
    2346:	46c0      	nop			; (mov r8, r8)
    2348:	bcf8      	pop	{r3, r4, r5, r6, r7}
    234a:	bc08      	pop	{r3}
    234c:	469e      	mov	lr, r3
    234e:	4770      	bx	lr

00002350 <__init_array_start>:
    2350:	000000e5 	.word	0x000000e5

00002354 <_fini>:
    2354:	b5f8      	push	{r3, r4, r5, r6, r7, lr}
    2356:	46c0      	nop			; (mov r8, r8)
    2358:	bcf8      	pop	{r3, r4, r5, r6, r7}
    235a:	bc08      	pop	{r3}
    235c:	469e      	mov	lr, r3
    235e:	4770      	bx	lr

00002360 <__fini_array_start>:
    2360:	000000bd 	.word	0x000000bd
